(dp0
I1
S'Fashion'
p1
sI2
S'Holiday'
p2
sI3
S'Party'
p3
sI4
S'Wedding'
p4
sI5
S'Clothing'
p5
sI6
S'Hosiery'
p6
sI7
S'Uniform'
p7
sI8
S'Engagement'
p8
sI9
S'Textile'
p9
sI10
S'Festival'
p10
sI11
S'Travel'
p11
sI12
S'Graduation'
p12
sI13
S'Ceremony'
p13
sI14
S'Swimsuit'
p14
sI15
S'Meeting'
p15
sI16
S'Interview'
p16
sI17
S'Prom'
p17
sI18
S'Conference'
p18
sI19
S'Office'
p19
sI20
S'Wedding dress'
p20
sI21
S'Vacation'
p21
sI22
S'Nightwear'
p22
sI23
S'Formal wear'
p23
sI24
S'Folk costume'
p24
sI25
S'Dress code'
p25
sI26
S'Clothing in India'
p26
sI27
S'Formalwear'
p27
sI28
S'Fashion accessory'
p28
sI29
S'Costume party'
p29
sI30
S'Morning dress'
p30
sI31
S'Indo-Western clothing'
p31
sI32
S'Clothing terminology'
p32
sI33
S'List of Hindu festivals'
p33
sI34
S'Western wear'
p34
sI35
S'Category:Western wear'
p35
sI36
S'Casual'
p36
sI37
S'Smart casual'
p37
sI38
S'Category:Nightwear'
p38
sI39
S'Western dress codes'
p39
sI40
S'Informal attire'
p40
sI41
S'Sportswear (activewear)'
p41
sI42
S'Workwear'
p42
sI43
S'Category:Workwear'
p43
sI44
S'Clubwear'
p44
sI45
S'Dating'
p45
sI46
S'Category:Clothing by function'
p46
sI47
S'Index of fashion articles'
p47
sI48
S'Category:Dancewear'
p48
sI49
S'Dress'
p49
sI50
S'Dance costume'
p50
sI51
S'Category:Formal wear'
p51
sI52
S'Outerwear'
p52
sI53
S'Template:Clothing'
p53
sI54
S'Street fashion'
p54
sI55
S'Undergarment'
p55
sI56
S'Birthday'
p56
sI57
S'Sportswear (fashion)'
p57
sI58
S'Summer Wear'
p58
sI59
S'Indian wedding clothes'
p59
sI60
S'2010s in fashion'
p60
sI61
S'Business Casual'
p61
sI62
S'Fashion in India'
p62
sI63
S'Algeria'
p63
sI64
S'Anthropology'
p64
sI65
S'Andorra'
p65
sI66
S'American Football Conference'
p66
sI67
S'Alaska'
p67
sI68
S'Angola'
p68
sI69
S'Alberta'
p69
sI70
S'Afghanistan'
p70
sI71
S'Albania'
p71
sI72
S'Azerbaijan'
p72
sI73
S'American Civil War'
p73
sI74
S'Andy Warhol'
p74
sI75
S'Ancient Egypt'
p75
sI76
S'Anglican Communion'
p76
sI77
S'Alps'
p77
sI78
S'Antisemitism'
p78
sI79
S'Anglicanism'
p79
sI80
S'Abraham'
p80
sI81
S'Algiers'
p81
sI82
S'Age of consent'
p82
sI83
S'American English'
p83
sI84
S'Arbor Day'
p84
sI85
S'Augustine of Hippo'
p85
sI86
S'African Americans'
p86
sI87
S'Arabs'
p87
sI88
S'Admiralty'
p88
sI89
S'Atlanta'
p89
sI90
S'Ballroom dance'
p90
sI91
S'Belgium'
p91
sI92
S'Berlin'
p92
sI93
S'Bill Clinton'
p93
sI94
S'Brazil'
p94
sI95
S'Black Sea'
p95
sI96
S'Bible'
p96
sI97
S'Gautama Buddha'
p97
sI98
S'Beadwork'
p98
sI99
S'Bead'
p99
sI100
S'Bulgaria'
p100
sI101
S'Symphony No. 9 (Beethoven)'
p101
sI102
S'Bangladesh'
p102
sI103
S'Belarus'
p103
sI104
S'Benin'
p104
sI105
S'Bermuda'
p105
sI106
S'Bolivia'
p106
sI107
S'Bosnia and Herzegovina'
p107
sI108
S'Brunei'
p108
sI109
S'Bavaria'
p109
sI110
S'BMW'
p110
sI111
S'Bastille Day'
p111
sI112
S'Buckingham Palace'
p112
sI113
S'British Airways'
p113
sI114
S'Bicycle'
p114
sI115
S'Big Bang'
p115
sI116
S'Bus'
p116
sI117
S'Bali'
p117
sI118
S'British English'
p118
sI119
S'Boxing'
p119
sI120
S'Bollywood'
p120
sI121
S'Baptism'
p121
sI122
S'Beltane'
p122
sI123
S'Bethlehem'
p123
sI124
S'Baldric'
p124
sI125
S'Barcelona'
p125
sI126
S'Baghdad'
p126
sI127
S'Bikini'
p127
sI128
S'Board of directors'
p128
sI129
S'Book of Common Prayer'
p129
sI130
S'Christianity'
p130
sI131
S'Colombia'
p131
sI132
S'Country music'
p132
sI133
S'Czech Republic'
p133
sI134
S'Comoros'
p134
sI135
S'China'
p135
sI136
S'California'
p136
sI137
S'Cameroon'
p137
sI138
S'Chile'
p138
sI139
S'Costa Rica'
p139
sI140
S'Croatia'
p140
sI141
S'Costume jewelry'
p141
sI142
S'Cornwall'
p142
sI143
S'Confucianism'
p143
sI144
S'Continental Europe'
p144
sI145
S'Canada Day'
p145
sI146
S'Color'
p146
sI147
S'The Church of Jesus Christ of Latter-day Saints'
p147
sI148
S'Calvinism'
p148
sI149
S'Common Era'
p149
sI150
S'Chechnya'
p150
sI151
S'Christmas'
p151
sI152
S'Celts'
p152
sI153
S'Conservative Judaism'
p153
sI154
S'Mail (armour)'
p154
sI155
S'Central Asia'
p155
sI156
S'Centers for Disease Control and Prevention'
p156
sI157
S'City of London'
p157
sI158
S'Chicago'
p158
sI159
S'Cellulose'
p159
sI160
S'Cook Islands'
p160
sI161
S'Chastity'
p161
sI162
S'Hanukkah'
p162
sI163
S'Christian views on marriage'
p163
sI164
S'Crochet'
p164
sI165
S'Calico'
p165
sI166
S'The Canterbury Tales'
p166
sI167
S'Costume'
p167
sI168
S'Drew Barrymore'
p168
sI169
S'Delaware'
p169
sI170
S'Drink'
p170
sI171
S'Dominican Republic'
p171
sI172
S'Dallas Cowboys'
p172
sI173
S'Dilbert'
p173
sI174
S'Dye'
p174
sI175
S'Dwight D. Eisenhower'
p175
sI176
S'December 31'
p176
sI177
S'Arthur Wellesley, 1st Duke of Wellington'
p177
sI178
S'Denver'
p178
sI179
S'David Beckham'
p179
sI180
S'Dandy'
p180
sI181
S'Damascus'
p181
sI182
S'Diplomatic mission'
p182
sI183
S'Europe'
p183
sI184
S'Elvis Presley'
p184
sI185
S'England'
p185
sI186
S'Easter'
p186
sI187
S'Ecuador'
p187
sI188
S'Etruscan language'
p188
sI189
S'Esther'
p189
sI190
S'Embroidery'
p190
sI191
S'MDMA'
p191
sI192
S'Emperor of Japan'
p192
sI193
S'Eastern Orthodox Church'
p193
sI194
S'Edward VI of England'
p194
sI195
S'Hirohito'
p195
sI196
S'Finland'
p196
sI197
S'French language'
p197
sI198
S'Fiji'
p198
sI199
S'French Polynesia'
p199
sI200
S'Film festival'
p200
sI201
S'February'
p201
sI202
S'February 29'
p202
sI203
S'Fortaleza'
p203
sI204
S'French Revolution'
p204
sI205
S'Friends'
p205
sI206
S'Fourth Council of the Lateran'
p206
sI207
S'Full moon'
p207
sI208
S'Folk dance'
p208
sI209
S'Far East'
p209
sI210
S'Germany'
p210
sI211
S'German language'
p211
sI212
S'George Washington'
p212
sI213
S'Ghana'
p213
sI214
S'Greece'
p214
sI215
S'Greenland'
p215
sI216
S'Guinea'
p216
sI217
S'Guinea-Bissau'
p217
sI218
S'German Unity Day'
p218
sI219
S'Ganges'
p219
sI220
S'Gospel of Matthew'
p220
sI221
S'Guangzhou'
p221
sI222
S'Gambeson'
p222
sI223
S'George Frideric Handel'
p223
sI224
S'Geoffrey Chaucer'
p224
sI225
S'Goth subculture'
p225
sI226
S'Gilbert and Sullivan'
p226
sI227
S'Hawaii'
p227
sI228
S'Hungary'
p228
sI229
S'Haiti'
p229
sI230
S'Honduras'
p230
sI231
S'Hong Kong'
p231
sI232
S'Hinduism'
p232
sI233
S'Herodotus'
p233
sI234
S'Hindi'
p234
sI235
S'Hindu'
p235
sI236
S'Hesiod'
p236
sI237
S'Halloween'
p237
sI238
S'Halakha'
p238
sI239
S'Hungarian language'
p239
sI240
S'Henry Purcell'
p240
sI241
S'Henry VIII of England'
p241
sI242
S'Himachal Pradesh'
p242
sI243
S'Hairpin'
p243
sI244
S'Hair'
p244
sI245
S'Human sexual activity'
p245
sI246
S'Hogmanay'
p246
sI247
S'Iceland'
p247
sI248
S'Italy'
p248
sI249
S'India'
p249
sI250
S'Music of India'
p250
sI251
S'Internet'
p251
sI252
S'Republic of Ireland'
p252
sI253
S'Indonesia'
p253
sI254
S'Demographics of India'
p254
sI255
S'Indian religions'
p255
sI256
S'Iran'
p256
sI257
S'Italian language'
p257
sI258
S'Industrial Revolution'
p258
sI259
S'Ivy League'
p259
sI260
S'International Labour Organization'
p260
sI261
S'Ivory'
p261
sI262
S'Imam'
p262
sI263
S'Japan'
p263
sI264
S'James Bond'
p264
sI265
S'Judaism'
p265
sI266
S'Julian calendar'
p266
sI267
S'Jamaica'
p267
sI268
S'Jersey'
p268
sI269
S'Jewellery'
p269
sI270
S'Jane Austen'
p270
sI271
S'January 1'
p271
sI272
S'June 24'
p272
sI273
S'July 7'
p273
sI274
S'Jainism'
p274
sI275
S'Society of Jesus'
p275
sI276
S'John Wayne'
p276
sI277
S'John the Baptist'
p277
sI278
S'Jawaharlal Nehru'
p278
sI279
S'Knitting'
p279
sI280
S'Kazakhstan'
p280
sI281
S'Korea'
p281
sI282
S'Kent'
p282
sI283
S'Kimono'
p283
sI284
S'Karnataka'
p284
sI285
S'Karachi'
p285
sI286
S'Klamath people'
p286
sI287
S'Kilt'
p287
sI288
S'Kashmir'
p288
sI289
S'Kosovo'
p289
sI290
S'Luxembourg'
p290
sI291
S'Live action role-playing game'
p291
sI292
S'Libya'
p292
sI293
S'Lithuania'
p293
sI294
S'Latin'
p294
sI295
S'Local area network'
p295
sI296
S'Laos'
p296
sI297
S'Lebanon'
p297
sI298
S'Lesotho'
p298
sI299
S'Liberia'
p299
sI300
S'Liechtenstein'
p300
sI301
S'London'
p301
sI302
S'Ludwig van Beethoven'
p302
sI303
S'Leather'
p303
sI304
S'Liverpool'
p304
sI305
S'Louisiana'
p305
sI306
S'Limburg (Netherlands)'
p306
sI307
S'Middle Ages'
p307
sI308
S'Michigan'
p308
sI309
S'Muhammad'
p309
sI310
S'Madagascar'
p310
sI311
S'Mongols'
p311
sI312
S'Malawi'
p312
sI313
S'Maldives'
p313
sI314
S'Mali'
p314
sI315
S'Malta'
p315
sI316
S'Mumbai'
p316
sI317
S'Mongolia'
p317
sI318
S'Morocco'
p318
sI319
S'Mozambique'
p319
sI320
S'Middle East'
p320
sI321
S'Marco Polo'
p321
sI322
S'Mahatma Gandhi'
p322
sI323
S'Myanmar'
p323
sI324
S'Mao Zedong'
p324
sI325
S'Muslim'
p325
sI326
S'Mahabharata'
p326
sI327
S'Milk'
p327
sI328
S'Madhuri Dixit'
p328
sI329
S'Motorcycle'
p329
sI330
S'Management'
p330
sI331
S'Martin Luther King, Jr.'
p331
sI332
S'Musical ensemble'
p332
sI333
S'Melbourne Cup'
p333
sI334
S'Musical theatre'
p334
sI335
S'Mary, Queen of Scots'
p335
sI336
S'Marathi language'
p336
sI337
S'Maharashtra'
p337
sI338
S'Montenegro'
p338
sI339
S'Magazine'
p339
sI340
S'Mormonism'
p340
sI341
S'North America'
p341
sI342
S'Netherlands'
p342
sI343
S'Nancy Reagan'
p343
sI344
S'National Football League'
p344
sI345
S'Native Americans in the United States'
p345
sI346
S'Norway'
p346
sI347
S'Nile'
p347
sI348
S'Neuroscience'
p348
sI349
S'North Korea'
p349
sI350
S'Northern Ireland'
p350
sI351
S'Nuremberg'
p351
sI352
S'Namibia'
p352
sI353
S'Demographics of Nepal'
p353
sI354
S'New Caledonia'
p354
sI355
S'Nicaragua'
p355
sI356
S'Niger'
p356
sI357
S'Nigeria'
p357
sI358
S'Nylon'
p358
sI359
S'New Year'
p359
sI360
S'New Jersey'
p360
sI361
S'North Carolina'
p361
sI362
S'Modern Paganism'
p362
sI363
S'North Africa'
p363
sI364
S'Normandy'
p364
sI365
S'National Hockey League'
p365
sI366
S'Naturism'
p366
sI367
S'National Basketball Association'
p367
sI368
S'Northern Hemisphere'
p368
sI369
S'Ohio'
p369
sI370
S'Orbit'
p370
sI371
S'Orthodox Judaism'
p371
sI372
S'Oxford English Dictionary'
p372
sI373
S'Old English'
p373
sI374
S'Origen'
p374
sI375
S'Psychology'
p375
sI376
S'Poland'
p376
sI377
S'Papua New Guinea'
p377
sI378
S'Paris'
p378
sI379
S'Panama'
p379
sI380
S'Portugal'
p380
sI381
S'Puerto Rico'
p381
sI382
S'Passover'
p382
sI383
S'Punch (magazine)'
p383
sI384
S'Pakistan'
p384
sI385
S'Pharaoh'
p385
sI386
S'Pennsylvania'
p386
sI387
S'Paraguay'
p387
sI388
S'Philippines'
p388
sI389
S'Pentecostalism'
p389
sI390
S'Police'
p390
sI391
S'Portuguese language'
p391
sI392
S'Portable Document Format'
p392
sI393
S'Puritans'
p393
sI394
S'Palm Sunday'
p394
sI395
S'Perth'
p395
sI396
S'Pope Innocent III'
p396
sI397
S'Profession'
p397
sI398
S'Polygamy'
p398
sI399
S'Pub'
p399
sI400
S'Punk subculture'
p400
sI401
S'Persian people'
p401
sI402
S'Punjab (region)'
p402
sI403
S'Prince Albert (genital piercing)'
p403
sI404
S'Quilting'
p404
sI405
S'Qing dynasty'
p405
sI406
S'Russia'
p406
sI407
S'Ronald Reagan'
p407
sI408
S'Romania'
p408
sI409
S'Richard Wagner'
p409
sI410
S'Rome'
p410
sI411
S'Richard Nixon'
p411
sI412
S'Roman Empire'
p412
sI413
S'Renaissance'
p413
sI414
S'Rwanda'
p414
sI415
S'Rail transport'
p415
sI416
S'Taiwan'
p416
sI417
S'Romeo and Juliet'
p417
sI418
S'Rio de Janeiro'
p418
sI419
S'Revolution'
p419
sI420
S'Reform Judaism'
p420
sI421
S'Reconstructionist Judaism'
p421
sI422
S'Royal Navy'
p422
sI423
S'Ramadan'
p423
sI424
S'Richard III of England'
p424
sI425
S'Rajasthan'
p425
sI426
S'Spain'
p426
sI427
S'Sabbath in Christianity'
p427
sI428
S'Star Wars'
p428
sI429
S'Switzerland'
p429
sI430
S'Sri Lanka'
p430
sI431
S'Science fiction'
p431
sI432
S'Satire'
p432
sI433
S'Suriname'
p433
sI434
S'Slovakia'
p434
sI435
S'Spinning (textiles)'
p435
sI436
S'Silicon Valley'
p436
sI437
S'Scotland'
p437
sI438
S'South Korea'
p438
sI439
S'Sami people'
p439
sI440
S'Shoe'
p440
sI441
S'Skinhead'
p441
sI442
S'Saint Lucia'
p442
sI443
S'Samoa'
p443
sI444
S'Senegal'
p444
sI445
S'Singapore'
p445
sI446
S'Slovenia'
p446
sI447
S'Somalia'
p447
sI448
S'Sudan'
p448
sI449
S'September 21'
p449
sI450
S'Sexual intercourse'
p450
sI451
S'Sicily'
p451
sI452
S'Shanghai'
p452
sI453
S'Sanskrit'
p453
sI454
S'Super Bowl'
p454
sI455
S'Saxons'
p455
sI456
S'Scouting'
p456
sI457
S'Spider-Man'
p457
sI458
S'Sikhism'
p458
sI459
S'Human swimming'
p459
sI460
S'Skateboarding'
p460
sI461
S'Willis Tower'
p461
sI462
S'Samba'
p462
sI463
S'Shinto'
p463
sI464
S'September 8'
p464
sI465
S'Soweto'
p465
sI466
S'Sukkot'
p466
sI467
S'Ship transport'
p467
sI468
S'Sovereignty'
p468
sI469
S'Sharia'
p469
sI470
S'Shiva'
p470
sI471
S'Scottish Highlands'
p471
sI472
S'Shogun'
p472
sI473
S'Sindh'
p473
sI474
S'Spaghetti Western'
p474
sI475
S'Serbia'
p475
sI476
S'Sex organ'
p476
sI477
S'Sardinia'
p477
sI478
S'Sikh'
p478
sI479
S'Texas'
p479
sI480
S'Tamil Nadu'
p480
sI481
S'Tamil language'
p481
sI482
S'Turmeric'
p482
sI483
S'Tanzania'
p483
sI484
S'Thailand'
p484
sI485
S'Tonga'
p485
sI486
S'Tunisia'
p486
sI487
S'Torah'
p487
sI488
S'Talmud'
p488
sI489
S'Tutankhamun'
p489
sI490
S'Tattoo'
p490
sI491
S'Train'
p491
sI492
S'The New York Times'
p492
sI493
S'Polytetrafluoroethylene'
p493
sI494
S'Tatting'
p494
sI495
S'Time management'
p495
sI496
S'Tom Cruise'
p496
sI497
S'Tibet'
p497
sI498
S'Utah'
p498
sI499
S'United Kingdom'
p499
sI500
S'Supreme Court of the United States'
p500
sI501
S'University of Michigan'
p501
sI502
S'Ukraine'
p502
sI503
S'United Nations'
p503
sI504
S'Uppsala University'
p504
sI505
S'Uganda'
p505
sI506
S'Uruguay'
p506
sI507
S'Uzbekistan'
p507
sI508
S'United States Declaration of Independence'
p508
sI509
S'University of California, Berkeley'
p509
sI510
S'United Nations General Assembly'
p510
sI511
S'Ultraviolet'
p511
sI512
S'Unitarianism'
p512
sI513
S'University of Canterbury'
p513
sI514
S'United States Secretary of State'
p514
sI515
S'Venezuela'
p515
sI516
S'Vanuatu'
p516
sI517
S'Venice Film Festival'
p517
sI518
S'Venice'
p518
sI519
S'Virginia Woolf'
p519
sI520
S'Victorian era'
p520
sI521
S'William Shakespeare'
p521
sI522
S'World War II'
p522
sI523
S'Wine'
p523
sI524
S'White House'
p524
sI525
S'Woman'
p525
sI526
S'World Intellectual Property Organization'
p526
sI527
S'Walking'
p527
sI528
S'Wakeboarding'
p528
sI529
S'Wheel of the Year'
p529
sI530
S'Washington Redskins'
p530
sI531
S'Washington Irving'
p531
sI532
S'Western Europe'
p532
sI533
S'Woodstock'
p533
sI534
S'William the Conqueror'
p534
sI535
S'West Bengal'
p535
sI536
S'Xingu River'
p536
sI537
S'Yom Kippur War'
p537
sI538
S'Yasser Arafat'
p538
sI539
S'Yom Kippur'
p539
sI540
S'Zimbabwe'
p540
sI541
S'1940s'
p541
sI542
S'1935'
p542
sI543
S'2010s'
p543
sI544
S'Milan'
p544
sI545
S'Cotton'
p545
sI546
S'Blake Edwards'
p546
sI547
S'Quran'
p547
sI548
S'Malayalam'
p548
sI549
S'Boise, Idaho'
p549
sI550
S'KFC'
p550
sI551
S'Dresden'
p551
sI552
S'Kannada'
p552
sI553
S'Hyderabad'
p553
sI554
S'Metropolitan Museum of Art'
p554
sI555
S'Delhi'
p555
sI556
S'Lohengrin (opera)'
p556
sI557
S'Lingerie'
p557
sI558
S'Footwear'
p558
sI559
S'Wool'
p559
sI560
S'Mardi Gras'
p560
sI561
S'Reality television'
p561
sI562
S'Brittany'
p562
sI563
S'Major League Baseball'
p563
sI564
S'Flax'
p564
sI565
S'Wedding reception'
p565
sI566
S'Maximilian I, Holy Roman Emperor'
p566
sI567
S'Black tie'
p567
sI568
S'Telugu language'
p568
sI569
S'Israel Defense Forces'
p569
sI570
S'Lillian Moller Gilbreth'
p570
sI571
S'Soho'
p571
sI572
S'Divorce'
p572
sI573
S'Bath, Somerset'
p573
sI574
S'Greeks'
p574
sI575
S'Ayodhya'
p575
sI576
S'Rastafari'
p576
sI577
S'Krishna'
p577
sI578
S'Mount Everest'
p578
sI579
S'1948 Summer Olympics'
p579
sI580
S'Eastern Christianity'
p580
sI581
S'Elizabeth Taylor'
p581
sI582
S'Screen printing'
p582
sI583
S'Back to the Future'
p583
sI584
S"A Midsummer Night's Dream"
p584
sI585
S'East India Company'
p585
sI586
S'Clint Eastwood'
p586
sI587
S'Aurelian'
p587
sI588
S'Ming dynasty'
p588
sI589
S'Zhou dynasty'
p589
sI590
S'Rave'
p590
sI591
S'Parsi'
p591
sI592
S'Norm (social)'
p592
sI593
S'Turkic peoples'
p593
sI594
S'L. Sprague de Camp'
p594
sI595
S'Marie Antoinette'
p595
sI596
S'Refugee'
p596
sI597
S'Pentecost'
p597
sI598
S'Prince of Wales'
p598
sI599
S'Globalization'
p599
sI600
S'Ninja'
p600
sI601
S'Shemini Atzeret'
p601
sI602
S'Non-governmental organization'
p602
sI603
S'British Royal Family'
p603
sI604
S'Straw'
p604
sI605
S'Loom'
p605
sI606
S'The Pirates of Penzance'
p606
sI607
S'Crimean War'
p607
sI608
S'Indus Valley Civilisation'
p608
sI609
S'Caesarean section'
p609
sI610
S'Monarchy of the United Kingdom'
p610
sI611
S'Buffy the Vampire Slayer'
p611
sI612
S'Hippie'
p612
sI613
S'Kolkata'
p613
sI614
S'Queen Victoria'
p614
sI615
S'Jean-Auguste-Dominique Ingres'
p615
sI616
S'Anzac Day'
p616
sI617
S'Alsace'
p617
sI618
S'Amazon rainforest'
p618
sI619
S'Provence'
p619
sI620
S'Georgia (country)'
p620
sI621
S'Supermodel'
p621
sI622
S'Patchwork'
p622
sI623
S'Gift'
p623
sI624
S'Indigo dye'
p624
sI625
S'Middle English'
p625
sI626
S'Holy Roman Emperor'
p626
sI627
S'Rabbi'
p627
sI628
S'Silk'
p628
sI629
S'Weaving'
p629
sI630
S'Yarn'
p630
sI631
S'VHS'
p631
sI632
S'Audrey Hepburn'
p632
sI633
S'Day of the Dead'
p633
sI634
S'Public holiday'
p634
sI635
S'Bar and Bat Mitzvah'
p635
sI636
S"Jehovah's Witnesses"
p636
sI637
S'George Sand'
p637
sI638
S'Morris dance'
p638
sI639
S'Square dance'
p639
sI640
S'Filet crochet'
p640
sI641
S'Tunisian crochet'
p641
sI642
S'Alexander Pushkin'
p642
sI643
S'Aztec'
p643
sI644
S'North West England'
p644
sI645
S'Eton College'
p645
sI646
S'Discovery (observation)'
p646
sI647
S'Gujarat'
p647
sI648
S'Human body'
p648
sI649
S'Diaper'
p649
sI650
S'Silk Road'
p650
sI651
S'Apron'
p651
sI652
S'Charles Macintosh'
p652
sI653
S'Autonomous communities of Spain'
p653
sI654
S'Inner Mongolia'
p654
sI655
S'North Brabant'
p655
sI656
S'Indigenous peoples in Brazil'
p656
sI657
S'Jumper (dress)'
p657
sI658
S'Personal protective equipment'
p658
sI659
S'Nurse uniform'
p659
sI660
S'School uniform'
p660
sI661
S'Vienna'
p661
sI662
S'Tabard'
p662
sI663
S'Japanese school uniform'
p663
sI664
S'Trieste'
p664
sI665
S'Kerchief'
p665
sI666
S'Linen'
p666
sI667
S'Surcoat'
p667
sI668
S'Poaceae'
p668
sI669
S'Mass (liturgy)'
p669
sI670
S'Jeans'
p670
sI671
S'Dhaka'
p671
sI672
S'Sisal'
p672
sI673
S'Tehran'
p673
sI674
S'Ivory Coast'
p674
sI675
S'Hopi'
p675
sI676
S'Honeycomb'
p676
sI677
S'Timeline of clothing and textiles technology'
p677
sI678
S'Labrador'
p678
sI679
S'Zouave'
p679
sI680
S'Business administration'
p680
sI681
S'Johann Pachelbel'
p681
sI682
S'Robert Baden-Powell, 1st Baron Baden-Powell'
p682
sI683
S'People for the Ethical Treatment of Animals'
p683
sI684
S'Watch'
p684
sI685
S'University of London'
p685
sI686
S'Chastity belt'
p686
sI687
S'Mosaic'
p687
sI688
S'Bedouin'
p688
sI689
S'Nantucket'
p689
sI690
S'Marie Louise, Duchess of Parma'
p690
sI691
S'Church of the Nativity'
p691
sI692
S'Van'
p692
sI693
S'Ice skate'
p693
sI694
S'Pieter Brueghel the Younger'
p694
sI695
S'Toronto'
p695
sI696
S'The Gambia'
p696
sI697
S'Denim'
p697
sI698
S'Ancient Greece'
p698
sI699
S'Canadian Broadcasting Corporation'
p699
sI700
S'LGBT'
p700
sI701
S'Carrie (novel)'
p701
sI702
S'Umbrella'
p702
sI703
S'Newark, New Jersey'
p703
sI704
S'Epsom Derby'
p704
sI705
S'Hijab'
p705
sI706
S"Bridget Jones's Diary"
p706
sI707
S'Veil'
p707
sI708
S'Royal Canadian Mounted Police'
p708
sI709
S'United Arab Emirates'
p709
sI710
S'Java'
p710
sI711
S'Nose-jewel'
p711
sI712
S'Mordecai'
p712
sI713
S'Napoleon'
p713
sI714
S'Wales'
p714
sI715
S'Ooty'
p715
sI716
S'Mysore'
p716
sI717
S'Recycling'
p717
sI718
S'Charles V, Holy Roman Emperor'
p718
sI719
S'Parliamentary procedure'
p719
sI720
S'Prince William, Duke of Cambridge'
p720
sI721
S'Canvas'
p721
sI722
S'Infant'
p722
sI723
S"St. Peter's Basilica"
p723
sI724
S'Birthday problem'
p724
sI725
S'Mary (mother of Jesus)'
p725
sI726
S'Glasses'
p726
sI727
S'Masquerade ball'
p727
sI728
S'Party game'
p728
sI729
S'Felix Mendelssohn'
p729
sI730
S'Democratic Republic of the Congo'
p730
sI731
S'Albert, Prince Consort'
p731
sI732
S'Denmark'
p732
sI733
S'Mary Poppins (film)'
p733
sI734
S'Julie Andrews'
p734
sI735
S'Kurdistan'
p735
sI736
S'Davy Crockett'
p736
sI737
S'Brandeis University'
p737
sI738
S'Wuhan'
p738
sI739
S'Blackwork'
p739
sI740
S'Adolescence'
p740
sI741
S'1956 Summer Olympics'
p741
sI742
S'La Tomatina'
p742
sI743
S'Motley'
p743
sI744
S'Cyndi Lauper'
p744
sI745
S'Utica, New York'
p745
sI746
S'Bride'
p746
sI747
S'Happy Birthday to You'
p747
sI748
S'Snowshoe'
p748
sI749
S'Talk show'
p749
sI750
S'Textile arts'
p750
sI751
S'Lace'
p751
sI752
S'Irish Travellers'
p752
sI753
S'Sewing'
p753
sI754
S'Same-sex marriage'
p754
sI755
S'Beverly Hills, 90210'
p755
sI756
S'Crown (headgear)'
p756
sI757
S'Victoria and Albert Museum'
p757
sI758
S'Bossier Parish, Louisiana'
p758
sI759
S'Jasmine'
p759
sI760
S'Asura'
p760
sI761
S'Hindu deities'
p761
sI762
S'Homo sapiens'
p762
sI763
S'Apsara'
p763
sI764
S'Edwardian era'
p764
sI765
S'Parvati'
p765
sI766
S'Lakshmi'
p766
sI767
S'Radha'
p767
sI768
S'Hanuman'
p768
sI769
S'Sydney Gay and Lesbian Mardi Gras'
p769
sI770
S"Hors d'oeuvre"
p770
sI771
S'Arrian'
p771
sI772
S'Cannes Film Festival'
p772
sI773
S'Wikipedia:WikiProject Novels'
p773
sI774
S'George Armstrong Custer'
p774
sI775
S'Inline skates'
p775
sI776
S'The Independent'
p776
sI777
S'Midwestern United States'
p777
sI778
S'Solicitor General of the United States'
p778
sI779
S'Salinas, California'
p779
sI780
S'Lone Ranger'
p780
sI781
S'Middletown, Kentucky'
p781
sI782
S'Gothic fashion'
p782
sI783
S'Fetish fashion'
p783
sI784
S'Punk fashion'
p784
sI785
S'Helmet'
p785
sI786
S'Fiber'
p786
sI787
S'Gold rush'
p787
sI788
S'Calgary Stampede'
p788
sI789
S'Velvet'
p789
sI790
S'Fulling'
p790
sI791
S'Charles-Marie Widor'
p791
sI792
S'Madonna (entertainer)'
p792
sI793
S'Cosmopolitan (magazine)'
p793
sI794
S'Ramesses III'
p794
sI795
S'Worsted'
p795
sI796
S'Yves Saint Laurent (designer)'
p796
sI797
S'Oran'
p797
sI798
S'Body modification'
p798
sI799
S'Corset'
p799
sI800
S'Mantle (vesture)'
p800
sI801
S'Tonsure'
p801
sI802
S'Paramilitary'
p802
sI803
S'Christian Dior'
p803
sI804
S'Pallium'
p804
sI805
S'Ireland'
p805
sI806
S'Laundry'
p806
sI807
S'Tallit'
p807
sI808
S'Donna Karan'
p808
sI809
S'Japanese clothing'
p809
sI810
S'Loose socks'
p810
sI811
S'Yukata'
p811
sI812
S'Vivienne Westwood'
p812
sI813
S'Victorian fashion'
p813
sI814
S'Bulletproof vest'
p814
sI815
S'Bobbin lace'
p815
sI816
S'Marquesas Islands'
p816
sI817
S'Ashkenazi Jews'
p817
sI818
S'Tyrian purple'
p818
sI819
S'Subculture'
p819
sI820
S'Mary of Burgundy'
p820
sI821
S'Casual Friday'
p821
sI822
S'T-shirt'
p822
sI823
S'Buffalo Bill'
p823
sI824
S'List of festivals in the United Kingdom'
p824
sI825
S'Leotard'
p825
sI826
S'Converse (shoe company)'
p826
sI827
S'Christmas carol'
p827
sI828
S'Unitard'
p828
sI829
S'Pajamas'
p829
sI830
S'Draped garment'
p830
sI831
S'Spandex'
p831
sI832
S'Mackintosh'
p832
sI833
S'Adornment'
p833
sI834
S'Kim Jong-il'
p834
sI835
S'Cloak'
p835
sI836
S'Titian'
p836
sI837
S'Parka'
p837
sI838
S'Ganguro'
p838
sI839
S'Marks & Spencer'
p839
sI840
S'Milton Bradley Company'
p840
sI841
S'Mink'
p841
sI842
S'Eid al-Fitr'
p842
sI843
S'Cosplay'
p843
sI844
S'Saturnalia'
p844
sI845
S'Glass fiber'
p845
sI846
S'Christmas Eve'
p846
sI847
S'Cosmetics'
p847
sI848
S'Condoleezza Rice'
p848
sI849
S'Bank holiday'
p849
sI850
S"King's College London"
p850
sI851
S'Oviedo'
p851
sI852
S'Earth Day'
p852
sI853
S'President of Turkey'
p853
sI854
S'Urination'
p854
sI855
S'Crocheted lace'
p855
sI856
S'Balaclava (clothing)'
p856
sI857
S'Travancore'
p857
sI858
S'Will Rogers'
p858
sI859
S'Felt'
p859
sI860
S'Indian independence movement'
p860
sI861
S"New Year's Day"
p861
sI862
S'Rayon'
p862
sI863
S'Viscose'
p863
sI864
S'Beard'
p864
sI865
S'Tights'
p865
sI866
S'Chabad'
p866
sI867
S'Stray Cats'
p867
sI868
S'Burqa'
p868
sI869
S"Dawson's Creek"
p869
sI870
S'Human condition'
p870
sI871
S'Saadia Gaon'
p871
sI872
S'Factory'
p872
sI873
S'List of festivals in Canada'
p873
sI874
S'List of festivals in Australia'
p874
sI875
S'List of festivals in the United States'
p875
sI876
S'Cooper A-2 jacket'
p876
sI877
S'Vaquero'
p877
sI878
S'Guru'
p878
sI879
S'Codpiece'
p879
sI880
S'Ski cap'
p880
sI881
S'Laundry symbol'
p881
sI882
S'Ad hoc'
p882
sI883
S'Speed dating'
p883
sI884
S'Suede'
p884
sI885
S'Online dating service'
p885
sI886
S'South Tyrol'
p886
sI887
S"Saint Patrick's Day"
p887
sI888
S'Needlepoint'
p888
sI889
S'Chapatsu'
p889
sI890
S'Peru'
p890
sI891
S'B. J. Thomas'
p891
sI892
S'Black Country'
p892
sI893
S'Nepal'
p893
sI894
S'Carding'
p894
sI895
S'Martin Luther King, Jr. Day'
p895
sI896
S'Glove'
p896
sI897
S'Loincloth'
p897
sI898
S'Mohair'
p898
sI899
S'Stocking'
p899
sI900
S'Belt (clothing)'
p900
sI901
S'Claddagh ring'
p901
sI902
S'Sunglasses'
p902
sI903
S'Bhajan'
p903
sI904
S'Roland Barthes'
p904
sI905
S'The Bachelor (U.S. TV series)'
p905
sI906
S'Pedestrian'
p906
sI907
S'Bhakti'
p907
sI908
S'Soka Gakkai'
p908
sI909
S'Karl Lagerfeld'
p909
sI910
S'Gene Autry'
p910
sI911
S'Foot binding'
p911
sI912
S'Wetsuit'
p912
sI913
S'Princess Beatrice of York'
p913
sI914
S'Pennsylvania Dutch'
p914
sI915
S'Puebla City'
p915
sI916
S'Southern United States'
p916
sI917
S'Southwestern United States'
p917
sI918
S'Western United States'
p918
sI919
S'Top Gun'
p919
sI920
S'Calendar of saints'
p920
sI921
S'Clan Campbell'
p921
sI922
S'Tassel'
p922
sI923
S"Valentine's Day"
p923
sI924
S'Retail'
p924
sI925
S'Anders Zorn'
p925
sI926
S'Backpack'
p926
sI927
S'Ossetia'
p927
sI928
S'Papal tiara'
p928
sI929
S'Joseph (patriarch)'
p929
sI930
S'Sweater'
p930
sI931
S'Dreadlocks'
p931
sI932
S'Coimbatore'
p932
sI933
S'Diwali'
p933
sI934
S'Speakeasy'
p934
sI935
S'Sumptuary law'
p935
sI936
S'Roy Rogers'
p936
sI937
S'Dating game show'
p937
sI938
S'Toga'
p938
sI939
S'Madras (cloth)'
p939
sI940
S'Life (magazine)'
p940
sI941
S'Ethiopia'
p941
sI942
S'Stola'
p942
sI943
S'Demi Moore'
p943
sI944
S'Kenya'
p944
sI945
S'Mourning'
p945
sI946
S'Puja (Hinduism)'
p946
sI947
S'Birthday attack'
p947
sI948
S'1950 in literature'
p948
sI949
S'Muslim world'
p949
sI950
S'Boot'
p950
sI951
S'Wellington boot'
p951
sI952
S'Pantyhose'
p952
sI953
S'Brisbane'
p953
sI954
S'Khaki'
p954
sI955
S'John Stanley (composer)'
p955
sI956
S'IBM card sorter'
p956
sI957
S'Shorts'
p957
sI958
S'Purim'
p958
sI959
S'Lockstitch'
p959
sI960
S'Hebrew Bible'
p960
sI961
S'Miss America'
p961
sI962
S'Catechism of the Catholic Church'
p962
sI963
S'Beau Brummell'
p963
sI964
S'Paisley (design)'
p964
sI965
S'Cardigan (sweater)'
p965
sI966
S'James Brudenell, 7th Earl of Cardigan'
p966
sI967
S'Turkmenistan'
p967
sI968
S'Bahia'
p968
sI969
S'Government Accountability Office'
p969
sI970
S'Ruby slippers'
p970
sI971
S'Hair loss'
p971
sI972
S'Muslin'
p972
sI973
S'Nowruz'
p973
sI974
S'Flapper'
p974
sI975
S'Hindu calendar'
p975
sI976
S'Miniskirt'
p976
sI977
S'Social status'
p977
sI978
S'Polypropylene'
p978
sI979
S'George du Maurier'
p979
sI980
S'Preadolescence'
p980
sI981
S'Vietnam'
p981
sI982
S'Travelling funfair'
p982
sI983
S'High-visibility clothing'
p983
sI984
S'Burning Man'
p984
sI985
S'Palembang'
p985
sI986
S'Frederick Winslow Taylor'
p986
sI987
S'Bandolier'
p987
sI988
S'Bikini Atoll'
p988
sI989
S'United Parcel Service'
p989
sI990
S'Ahmedabad'
p990
sI991
S'Judah (biblical person)'
p991
sI992
S'National Football Conference'
p992
sI993
S'Pince-nez'
p993
sI994
S'Boyfriend (fashion)'
p994
sI995
S'Sexual attraction'
p995
sI996
S'Kazakhs'
p996
sI997
S'Bihu'
p997
sI998
S'Chinese alcoholic beverages'
p998
sI999
S'Gymnasium (school)'
p999
sI1000
S'Abitur'
p1000
sI1001
S'Neoprene'
p1001
sI1002
S'Underpants'
p1002
sI1003
S'Annulment'
p1003
sI1004
S'Federal holidays in the United States'
p1004
sI1005
S'Sans-culottes'
p1005
sI1006
S'Midsummer'
p1006
sI1007
S'Human migration'
p1007
sI1008
S'Hakama'
p1008
sI1009
S'United States Public Health Service'
p1009
sI1010
S'Little Lord Fauntleroy'
p1010
sI1011
S'Presidential sash'
p1011
sI1012
S'Organization development'
p1012
sI1013
S'Retro style'
p1013
sI1014
S'Indian cuisine'
p1014
sI1015
S'Facilitation (business)'
p1015
sI1016
S'Neckerchief'
p1016
sI1017
S'Shavuot'
p1017
sI1018
S'Victoria Day'
p1018
sI1019
S'Braid'
p1019
sI1020
S'Knowledge transfer'
p1020
sI1021
S'Baleen'
p1021
sI1022
S'Mitzvah'
p1022
sI1023
S'Uttar Pradesh'
p1023
sI1024
S'Skirt'
p1024
sI1025
S'Hauberk'
p1025
sI1026
S'Cheongsam'
p1026
sI1027
S'Changshan'
p1027
sI1028
S'Motivation'
p1028
sI1029
S'Ready-to-wear'
p1029
sI1030
S'Coir'
p1030
sI1031
S'Eyepatch'
p1031
sI1032
S'Pinking shears'
p1032
sI1033
S'Wig'
p1033
sI1034
S'Outsourcing'
p1034
sI1035
S'Mountain man'
p1035
sI1036
S'Nose piercing'
p1036
sI1037
S'FUBU'
p1037
sI1038
S'Adidas'
p1038
sI1039
S'Femininity'
p1039
sI1040
S'MEDLINE'
p1040
sI1041
S'Speedo'
p1041
sI1042
S'Robe'
p1042
sI1043
S'Rite of passage'
p1043
sI1044
S'Jean-Antoine Watteau'
p1044
sI1045
S'Gaelic Athletic Association'
p1045
sI1046
S'Chaperone (social)'
p1046
sI1047
S'Brahmin'
p1047
sI1048
S'Saraswati'
p1048
sI1049
S'Gore-Tex'
p1049
sI1050
S'White-collar worker'
p1050
sI1051
S'Mask'
p1051
sI1052
S'Tiara'
p1052
sI1053
S'Waitangi Day'
p1053
sI1054
S'Torc'
p1054
sI1055
S'Same-sex marriage in the Netherlands'
p1055
sI1056
S'Same-sex marriage in Belgium'
p1056
sI1057
S'Same-sex marriage in Canada'
p1057
sI1058
S'Same-sex marriage in the United States'
p1058
sI1059
S'Odisha'
p1059
sI1060
S'Saint Thomas Christians'
p1060
sI1061
S'Houston Chronicle'
p1061
sI1062
S'American frontier'
p1062
sI1063
S'Exhibitionism'
p1063
sI1064
S'HarperCollins'
p1064
sI1065
S'Merriam-Webster'
p1065
sI1066
S'Necklace'
p1066
sI1067
S'Dr. Martens'
p1067
sI1068
S'Kawaii'
p1068
sI1069
S'Rio Grande do Sul'
p1069
sI1070
S'Justice of the peace'
p1070
sI1071
S'Quipu'
p1071
sI1072
S'Orthodoxy'
p1072
sI1073
S'Bill Maher'
p1073
sI1074
S'Shirt'
p1074
sI1075
S'Carpet'
p1075
sI1076
S'Hard hat'
p1076
sI1077
S'Die Zeit'
p1077
sI1078
S'University Athletic Association of the Philippines'
p1078
sI1079
S'Assyrian people'
p1079
sI1080
S'Handkerchief'
p1080
sI1081
S'Chinese tea culture'
p1081
sI1082
S'Buckram'
p1082
sI1083
S'Periplus of the Erythraean Sea'
p1083
sI1084
S'Tamar (Genesis)'
p1084
sI1085
S'Sash'
p1085
sI1086
S'Tabi'
p1086
sI1087
S'Lollapalooza'
p1087
sI1088
S'Pound sterling'
p1088
sI1089
S'Aramid'
p1089
sI1090
S'Macquarie Dictionary'
p1090
sI1091
S'Bar'
p1091
sI1092
S'Empress Michiko'
p1092
sI1093
S'Shaivism'
p1093
sI1094
S'Ashton Kutcher'
p1094
sI1095
S'Turban'
p1095
sI1096
S'Nuu-chah-nulth'
p1096
sI1097
S'Bridesmaid'
p1097
sI1098
S'Pueblo'
p1098
sI1099
S'Tarantella'
p1099
sI1100
S'Sears'
p1100
sI1101
S"New Year's Eve"
p1101
sI1102
S'Black Madonna'
p1102
sI1103
S'Baywatch'
p1103
sI1104
S'James Gillray'
p1104
sI1105
S'Malays (ethnic group)'
p1105
sI1106
S'Fernand Braudel'
p1106
sI1107
S'Senior management'
p1107
sI1108
S'Romance (love)'
p1108
sI1109
S'Skort'
p1109
sI1110
S'Grand Tour'
p1110
sI1111
S'Soraya Esfandiary-Bakhtiari'
p1111
sI1112
S'Sign language glove'
p1112
sI1113
S'Mordant'
p1113
sI1114
S'Lunar New Year'
p1114
sI1115
S'Onam'
p1115
sI1116
S'Minor (law)'
p1116
sI1117
S'Mawashi'
p1117
sI1118
S'Samantha Fox'
p1118
sI1119
S'The O.C.'
p1119
sI1120
S'Dry suit'
p1120
sI1121
S'Fred Perry'
p1121
sI1122
S'Pupa'
p1122
sI1123
S'Polyethylene terephthalate'
p1123
sI1124
S'Culture of India'
p1124
sI1125
S'Beetlejuice'
p1125
sI1126
S'Meiji Shrine'
p1126
sI1127
S'Anthony van Dyck'
p1127
sI1128
S'Preppy'
p1128
sI1129
S'Earring'
p1129
sI1130
S'Kodagu district'
p1130
sI1131
S'Mao suit'
p1131
sI1132
S'Maureen Dowd'
p1132
sI1133
S'Necktie'
p1133
sI1134
S'Tamils'
p1134
sI1135
S'Pattern grading'
p1135
sI1136
S'Zipper'
p1136
sI1137
S'Slip-on shoe'
p1137
sI1138
S'Vyasa'
p1138
sI1139
S'Ribbon'
p1139
sI1140
S'Waistcoat'
p1140
sI1141
S'Vest'
p1141
sI1142
S'Higher School Certificate (New South Wales)'
p1142
sI1143
S'National League (English football)'
p1143
sI1144
S'Climbing shoe'
p1144
sI1145
S'Catsuit'
p1145
sI1146
S'Velour'
p1146
sI1147
S'Bodystocking'
p1147
sI1148
S'Woven fabric'
p1148
sI1149
S'Button'
p1149
sI1150
S'Bodysuit'
p1150
sI1151
S'Indian philosophy'
p1151
sI1152
S'Jamshedpur'
p1152
sI1153
S'Raincoat'
p1153
sI1154
S'Wikipedia:External links'
p1154
sI1155
S'ABC News'
p1155
sI1156
S'Square academic cap'
p1156
sI1157
S'Gianni Versace'
p1157
sI1158
S'Toque'
p1158
sI1159
S'Surplice'
p1159
sI1160
S'Old French'
p1160
sI1161
S'Fez'
p1161
sI1162
S'Tira, Israel'
p1162
sI1163
S'Kurtka'
p1163
sI1164
S'Larry Hagman'
p1164
sI1165
S'Diving suit'
p1165
sI1166
S"Harper's Bazaar"
p1166
sI1167
S'Safari jacket'
p1167
sI1168
S'Takayama, Gifu'
p1168
sI1169
S'Visa (document)'
p1169
sI1170
S'Trench coat'
p1170
sI1171
S'Cassock'
p1171
sI1172
S'Steel-toe boot'
p1172
sI1173
S'Epaulette'
p1173
sI1174
S'Satin'
p1174
sI1175
S'Ernest Tubb'
p1175
sI1176
S'Cambodia'
p1176
sI1177
S'Ski boot'
p1177
sI1178
S'Brooch'
p1178
sI1179
S'Jute'
p1179
sI1180
S'Wimple'
p1180
sI1181
S'Phrygian cap'
p1181
sI1182
S'Grease (film)'
p1182
sI1183
S"Pachelbel's Canon"
p1183
sI1184
S'White tie'
p1184
sI1185
S'Court dress'
p1185
sI1186
S'Academic dress'
p1186
sI1187
S'Kannada people'
p1187
sI1188
S'Coat (clothing)'
p1188
sI1189
S'Suit (clothing)'
p1189
sI1190
S'Ingeo'
p1190
sI1191
S'Vogue (magazine)'
p1191
sI1192
S'Odia language'
p1192
sI1193
S'Woolen'
p1193
sI1194
S'Kabylie'
p1194
sI1195
S'Crown dependencies'
p1195
sI1196
S'Poplin'
p1196
sI1197
S'Drill (fabric)'
p1197
sI1198
S'Levi Strauss'
p1198
sI1199
S'Cubicle'
p1199
sI1200
S'Digital video recorder'
p1200
sI1201
S'Partner dance'
p1201
sI1202
S'Panties'
p1202
sI1203
S'G-string'
p1203
sI1204
S'Henri, Grand Duke of Luxembourg'
p1204
sI1205
S'Tartan'
p1205
sI1206
S'Saudi Arabia'
p1206
sI1207
S'Sable'
p1207
sI1208
S'Marriageable age'
p1208
sI1209
S'Yemen'
p1209
sI1210
S'Angora wool'
p1210
sI1211
S'Rani Mukerji'
p1211
sI1212
S'Vestment'
p1212
sI1213
S'Reformation Day'
p1213
sI1214
S'Taqiya'
p1214
sI1215
S'Al-Andalus'
p1215
sI1216
S'Secretary of State for the Environment, Transport and the Regions'
p1216
sI1217
S'Eid al-Adha'
p1217
sI1218
S'Gibson Girl'
p1218
sI1219
S'Apache'
p1219
sI1220
S'Clog'
p1220
sI1221
S'Metropolitan Community Church'
p1221
sI1222
S'Mariachi'
p1222
sI1223
S'Town meeting'
p1223
sI1224
S'List of water sports'
p1224
sI1225
S'Batik'
p1225
sI1226
S'Matriculation'
p1226
sI1227
S'Broadstairs'
p1227
sI1228
S'Qualitative research'
p1228
sI1229
S'Bolo tie'
p1229
sI1230
S'Hall v Durham Catholic School Board'
p1230
sI1231
S'Upanayana'
p1231
sI1232
S'Sannyasa'
p1232
sI1233
S'Bohemianism'
p1233
sI1234
S'Aglet'
p1234
sI1235
S'Shoelaces'
p1235
sI1236
S'Patent leather'
p1236
sI1237
S'"Wild Bill" Hickok'
p1237
sI1238
S'Slipper'
p1238
sI1239
S'Thermoregulation'
p1239
sI1240
S'Endowment (Mormonism)'
p1240
sI1241
S'Draupadi'
p1241
sI1242
S'Kippah'
p1242
sI1243
S'T. E. Dikty'
p1243
sI1244
S'Third jersey'
p1244
sI1245
S'Buzz cut'
p1245
sI1246
S'Moleskin'
p1246
sI1247
S'Knit cap'
p1247
sI1248
S'High Street'
p1248
sI1249
S'Gaucho'
p1249
sI1250
S'Wanli Emperor'
p1250
sI1251
S'List of multinational festivals and holidays'
p1251
sI1252
S'Elisha Otis'
p1252
sI1253
S'Annie Oakley'
p1253
sI1254
S'Modoc people'
p1254
sI1255
S'Sam Browne belt'
p1255
sI1256
S'Zoot suit'
p1256
sI1257
S'10 Things I Hate About You'
p1257
sI1258
S'William-Adolphe Bouguereau'
p1258
sI1259
S'Wyatt Earp'
p1259
sI1260
S'Bill Blass'
p1260
sI1261
S'Drinking culture'
p1261
sI1262
S'Sick building syndrome'
p1262
sI1263
S'Ellora Caves'
p1263
sI1264
S'Nashim'
p1264
sI1265
S'Kumbh Mela'
p1265
sI1266
S'Cockade'
p1266
sI1267
S'Conference call'
p1267
sI1268
S'Thai Pongal'
p1268
sI1269
S'Pierre Cardin'
p1269
sI1270
S'Monocle'
p1270
sI1271
S'Tinea cruris'
p1271
sI1272
S'Sari'
p1272
sI1273
S'Kurta'
p1273
sI1274
S'Vijayadashami'
p1274
sI1275
S'The Lord of the Rings (film series)'
p1275
sI1276
S'Sterilization (microbiology)'
p1276
sI1277
S'Plush'
p1277
sI1278
S'Pocket'
p1278
sI1279
S'Flip-flops'
p1279
sI1280
S'Ugadi'
p1280
sI1281
S'Cinema of the United States'
p1281
sI1282
S'Mullet (haircut)'
p1282
sI1283
S'Bowler hat'
p1283
sI1284
S'Gupta'
p1284
sI1285
S'Tightlacing'
p1285
sI1286
S'Elsevier'
p1286
sI1287
S'Golden Week (Japan)'
p1287
sI1288
S'Grommet'
p1288
sI1289
S'Azim Premji'
p1289
sI1290
S'Skype'
p1290
sI1291
S'Ponytail'
p1291
sI1292
S'LAN party'
p1292
sI1293
S'Isaac Mizrahi'
p1293
sI1294
S'Urtica dioica'
p1294
sI1295
S'Ghillie suit'
p1295
sI1296
S'Northeastern United States'
p1296
sI1297
S'Party of Five'
p1297
sI1298
S'Baseball cap'
p1298
sI1299
S'Bow tie'
p1299
sI1300
S'Extreme Cold Weather Clothing'
p1300
sI1301
S'Tommy Hilfiger'
p1301
sI1302
S'Workplace politics'
p1302
sI1303
S'Rugby shirt'
p1303
sI1304
S'Bihar'
p1304
sI1305
S'Temple garment'
p1305
sI1306
S'Busk'
p1306
sI1307
S'Pointe shoe'
p1307
sI1308
S'Mormon fundamentalism'
p1308
sI1309
S'Sindhis'
p1309
sI1310
S'Engaged (disambiguation)'
p1310
sI1311
S'Air travel'
p1311
sI1312
S'Cornerstone'
p1312
sI1313
S'Amazon basin'
p1313
sI1314
S'Lampung'
p1314
sI1315
S'Wearable art'
p1315
sI1316
S'Pretty in Pink'
p1316
sI1317
S'Livery'
p1317
sI1318
S'Aloha shirt'
p1318
sI1319
S'Twaron'
p1319
sI1320
S'Buddhist view of marriage'
p1320
sI1321
S'Thaipusam'
p1321
sI1322
S'Pachuco'
p1322
sI1323
S'Ralph Lauren'
p1323
sI1324
S'Tupperware'
p1324
sI1325
S'Juncaceae'
p1325
sI1326
S'Karisma Kapoor'
p1326
sI1327
S'Somerset House'
p1327
sI1328
S'Sneakers'
p1328
sI1329
S'Kente cloth'
p1329
sI1330
S'Cummerbund'
p1330
sI1331
S'Cap'
p1331
sI1332
S'Top hat'
p1332
sI1333
S'Constantine, Algeria'
p1333
sI1334
S'List of headgear'
p1334
sI1335
S'Cravat'
p1335
sI1336
S'Byssus'
p1336
sI1337
S'Quiff'
p1337
sI1338
S'Hat'
p1338
sI1339
S'Panama hat'
p1339
sI1340
S'Spring break'
p1340
sI1341
S'Welsh hat'
p1341
sI1342
S'Boater'
p1342
sI1343
S'Traditional Chinese holidays'
p1343
sI1344
S'Barretina'
p1344
sI1345
S'Headpiece'
p1345
sI1346
S'Public holidays in India'
p1346
sI1347
S'Slouch hat'
p1347
sI1348
S'Bob cut'
p1348
sI1349
S'Dhoti'
p1349
sI1350
S'Chanakya'
p1350
sI1351
S'Fedora'
p1351
sI1352
S'Jared Leto'
p1352
sI1353
S'Makar Sankranti'
p1353
sI1354
S'Table setting'
p1354
sI1355
S'Stole (vestment)'
p1355
sI1356
S'Holi'
p1356
sI1357
S'Health insurance'
p1357
sI1358
S'Joe Gibbs'
p1358
sI1359
S'Windsor knot'
p1359
sI1360
S'Trilby'
p1360
sI1361
S'Beanie (seamed cap)'
p1361
sI1362
S'Javanese people'
p1362
sI1363
S'Jersey (clothing)'
p1363
sI1364
S'Bucket hat'
p1364
sI1365
S'Piedmontese language'
p1365
sI1366
S'Scarf'
p1366
sI1367
S'Beret'
p1367
sI1368
S'Chasuble'
p1368
sI1369
S'Dalmatic'
p1369
sI1370
S'Maniple (vestment)'
p1370
sI1371
S'Cincture'
p1371
sI1372
S'Alb'
p1372
sI1373
S'Humeral veil'
p1373
sI1374
S'Plate armour'
p1374
sI1375
S'Coming of Age Day'
p1375
sI1376
S'Bonnet (headgear)'
p1376
sI1377
S'Hood (headgear)'
p1377
sI1378
S'Geta (footwear)'
p1378
sI1379
S'Gandhara'
p1379
sI1380
S'Llanero'
p1380
sI1381
S'Mitre'
p1381
sI1382
S'Biretta'
p1382
sI1383
S'Cashmere wool'
p1383
sI1384
S'Zucchetto'
p1384
sI1385
S'Stetson'
p1385
sI1386
S'Cope'
p1386
sI1387
S'Monokini'
p1387
sI1388
S'Rudi Gernreich'
p1388
sI1389
S'Phragmites'
p1389
sI1390
S'Tunicle'
p1390
sI1391
S'Levi Strauss & Co.'
p1391
sI1392
S'High Middle Ages'
p1392
sI1393
S'Lyocell'
p1393
sI1394
S'Chador'
p1394
sI1395
S'Fair'
p1395
sI1396
S'Sombrero'
p1396
sI1397
S'Dale Evans'
p1397
sI1398
S'Little black dress'
p1398
sI1399
S'The Saturday Evening Post'
p1399
sI1400
S'Cheesecloth'
p1400
sI1401
S'Peplum'
p1401
sI1402
S'Pearly Kings and Queens'
p1402
sI1403
S'Mughal-e-Azam'
p1403
sI1404
S'Dolce & Gabbana'
p1404
sI1405
S'Caresse Crosby'
p1405
sI1406
S'Ancient Rome'
p1406
sI1407
S'Windsor uniform'
p1407
sI1408
S'Kanye West'
p1408
sI1409
S'Khalsa'
p1409
sI1410
S'Merino'
p1410
sI1411
S'Alaska Natives'
p1411
sI1412
S'Batting helmet'
p1412
sI1413
S'The Five Ks'
p1413
sI1414
S'Fashion Institute of Technology'
p1414
sI1415
S'Madhubala'
p1415
sI1416
S'Palmiro Togliatti'
p1416
sI1417
S'Microfiber'
p1417
sI1418
S'Ray-Ban'
p1418
sI1419
S'Serge (fabric)'
p1419
sI1420
S'Mat'
p1420
sI1421
S'Charity shop'
p1421
sI1422
S'Business casual'
p1422
sI1423
S'Mehndi'
p1423
sI1424
S'Founding Fathers of the United States'
p1424
sI1425
S'Syro-Malabar Catholic Church'
p1425
sI1426
S'Warehouse'
p1426
sI1427
S'Tom Mix'
p1427
sI1428
S'Charles Atlas'
p1428
sI1429
S'Hoggar Mountains'
p1429
sI1430
S'Straw hat'
p1430
sI1431
S'Government of India'
p1431
sI1432
S'Overall'
p1432
sI1433
S'Maurya Empire'
p1433
sI1434
S'Quiksilver'
p1434
sI1435
S'Tailcoat'
p1435
sI1436
S'Rangeela (film)'
p1436
sI1437
S'Jeremiah Clarke'
p1437
sI1438
S'GQ'
p1438
sI1439
S'Proto-Indo-European language'
p1439
sI1440
S'Tie-dye'
p1440
sI1441
S'Hip hop fashion'
p1441
sI1442
S'Lord Frederick Windsor'
p1442
sI1443
S'Risky Business'
p1443
sI1444
S'Jet (lignite)'
p1444
sI1445
S'Status symbol'
p1445
sI1446
S'Coronet'
p1446
sI1447
S'Nonverbal communication'
p1447
sI1448
S'Purdah'
p1448
sI1449
S'Vehicle insurance'
p1449
sI1450
S'Hockey helmet'
p1450
sI1451
S'Wheatus'
p1451
sI1452
S'Minyan'
p1452
sI1453
S'Charro'
p1453
sI1454
S'Office supplies'
p1454
sI1455
S'Antiochian Orthodox Christian Archdiocese of North America'
p1455
sI1456
S'Fursuit'
p1456
sI1457
S'Collar (BDSM)'
p1457
sI1458
S'Blouse'
p1458
sI1459
S'Baggy green'
p1459
sI1460
S'Kepi'
p1460
sI1461
S'Espadrille'
p1461
sI1462
S'Atilla (clothing)'
p1462
sI1463
S'Union suit'
p1463
sI1464
S'Long underwear'
p1464
sI1465
S'Drag (clothing)'
p1465
sI1466
S'Leg warmer'
p1466
sI1467
S'Ephod'
p1467
sI1468
S'Falsies'
p1468
sI1469
S'Elevator shoes'
p1469
sI1470
S'Hindu texts'
p1470
sI1471
S'Flat cap'
p1471
sI1472
S'Newsboy cap'
p1472
sI1473
S'Qeleshe'
p1473
sI1474
S'Pohela Boishakh'
p1474
sI1475
S'Vishu'
p1475
sI1476
S'Choker'
p1476
sI1477
S'Scapular'
p1477
sI1478
S'Ushanka'
p1478
sI1479
S'Greater China'
p1479
sI1480
S'Degrassi: The Next Generation'
p1480
sI1481
S'Bracteate'
p1481
sI1482
S'Manmohan Singh'
p1482
sI1483
S'Catholic Church'
p1483
sI1484
S'Rangoli'
p1484
sI1485
S'Ramie'
p1485
sI1486
S'Half-birthday'
p1486
sI1487
S"Tam o' shanter (cap)"
p1487
sI1488
S'Waraji'
p1488
sI1489
S'Medicine bag'
p1489
sI1490
S'Sankranti'
p1490
sI1491
S'Nightgown'
p1491
sI1492
S'Arthashastra'
p1492
sI1493
S'Lawn cloth'
p1493
sI1494
S'Karen people'
p1494
sI1495
S'Swabia'
p1495
sI1496
S'Ming official headwear'
p1496
sI1497
S'Qing official headwear'
p1497
sI1498
S'Mandarin square'
p1498
sI1499
S'Elopement (marriage)'
p1499
sI1500
S'Sallet'
p1500
sI1501
S'Bascinet'
p1501
sI1502
S'Sushmita Sen'
p1502
sI1503
S"America's Next Top Model"
p1503
sI1504
S'Llanwrtyd'
p1504
sI1505
S'Jagannath'
p1505
sI1506
S'K-pop'
p1506
sI1507
S'Wedding anniversary'
p1507
sI1508
S'Eliezer'
p1508
sI1509
S'General assembly'
p1509
sI1510
S'Peplos'
p1510
sI1511
S'Crinoline'
p1511
sI1512
S'Domestic worker'
p1512
sI1513
S'New York City'
p1513
sI1514
S'Bat Masterson'
p1514
sI1515
S'Vambrace'
p1515
sI1516
S'Officer of arms'
p1516
sI1517
S'Ramzan Kadyrov'
p1517
sI1518
S'Goggles'
p1518
sI1519
S'Same-sex marriage in France'
p1519
sI1520
S'Bristle'
p1520
sI1521
S'Wallet'
p1521
sI1522
S'Bharuch'
p1522
sI1523
S'The Dating Game'
p1523
sI1524
S'Same-sex marriage in the Republic of Ireland'
p1524
sI1525
S'Same-sex marriage in South Africa'
p1525
sI1526
S'Spur'
p1526
sI1527
S'Cucumber sandwich'
p1527
sI1528
S'Main course'
p1528
sI1529
S'Wetlook'
p1529
sI1530
S'Same-sex marriage in the United Kingdom'
p1530
sI1531
S'Rajput'
p1531
sI1532
S'South India'
p1532
sI1533
S'Jacket'
p1533
sI1534
S'Dragon Con'
p1534
sI1535
S'Native Hawaiians'
p1535
sI1536
S'Abraham Bosse'
p1536
sI1537
S"Queen's Official Birthday"
p1537
sI1538
S'Riding boot'
p1538
sI1539
S'Jumpsuit'
p1539
sI1540
S'One-piece swimsuit'
p1540
sI1541
S'Groundbreaking'
p1541
sI1542
S'Category:Anthropology'
p1542
sI1543
S'Prada'
p1543
sI1544
S'Lei (garland)'
p1544
sI1545
S'Bachelor party'
p1545
sI1546
S'Category:Seasonal traditions'
p1546
sI1547
S'Category:Holidays'
p1547
sI1548
S'Category:Parties'
p1548
sI1549
S'Category:Tourist activities'
p1549
sI1550
S'Category:Tourism'
p1550
sI1551
S'Category:Travel'
p1551
sI1552
S'Platform shoe'
p1552
sI1553
S'Thigh-high boots'
p1553
sI1554
S'Suspenders'
p1554
sI1555
S'Gabardine'
p1555
sI1556
S'Twill'
p1556
sI1557
S'Cervelliere'
p1557
sI1558
S'Omophorion'
p1558
sI1559
S'Ikat'
p1559
sI1560
S'Suzanne Lenglen'
p1560
sI1561
S'Sarong'
p1561
sI1562
S'Frank Bunker Gilbreth, Sr.'
p1562
sI1563
S'Category:Canadian culture'
p1563
sI1564
S'Shell cordovan'
p1564
sI1565
S'Category:American culture'
p1565
sI1566
S'Category:Country music'
p1566
sI1567
S'Hotan'
p1567
sI1568
S'Jockstrap'
p1568
sI1569
S'Charles Frederick Worth'
p1569
sI1570
S'Chanel'
p1570
sI1571
S'Jean Patou'
p1571
sI1572
S'Versace'
p1572
sI1573
S'Homecoming'
p1573
sI1574
S'Category:Clothing'
p1574
sI1575
S'Category:Uniforms'
p1575
sI1576
S'Galero'
p1576
sI1577
S'China Daily'
p1577
sI1578
S'Bariloche'
p1578
sI1579
S'Visor'
p1579
sI1580
S'Category:Marriage'
p1580
sI1581
S'Kaftan'
p1581
sI1582
S'Ida Rosenthal'
p1582
sI1583
S'United States Public Health Service Commissioned Corps'
p1583
sI1584
S'Snood (headgear)'
p1584
sI1585
S'Pork pie hat'
p1585
sI1586
S'Lock ring'
p1586
sI1587
S'Tube top'
p1587
sI1588
S'Royal Caribbean International'
p1588
sI1589
S'Awayday'
p1589
sI1590
S'Marriage vows'
p1590
sI1591
S'Bell-bottoms'
p1591
sI1592
S'Rawhide (material)'
p1592
sI1593
S'Chaps'
p1593
sI1594
S'List of jazz festivals'
p1594
sI1595
S'Modacrylic'
p1595
sI1596
S'Category:Festivals'
p1596
sI1597
S'Pocket watch'
p1597
sI1598
S'Buckle'
p1598
sI1599
S'Greco-Buddhist art'
p1599
sI1600
S'Medical identification tag'
p1600
sI1601
S'Jomala'
p1601
sI1602
S'Indo-Greek Kingdom'
p1602
sI1603
S'Chemise'
p1603
sI1604
S'Couturier'
p1604
sI1605
S'Interfacing'
p1605
sI1606
S'Independence Day (United States)'
p1606
sI1607
S'Tanga (clothing)'
p1607
sI1608
S'Category:Management'
p1608
sI1609
S'Muumuu'
p1609
sI1610
S'Arab Christians'
p1610
sI1611
S'Climate of India'
p1611
sI1612
S'Money belt'
p1612
sI1613
S'Flame retardant'
p1613
sI1614
S'Warp and woof'
p1614
sI1615
S'Brooks Brothers'
p1615
sI1616
S'Caliphate'
p1616
sI1617
S'Category:Wedding'
p1617
sI1618
S'Dover Publications'
p1618
sI1619
S'Roller derby'
p1619
sI1620
S'Mod (subculture)'
p1620
sI1621
S'Cap badge'
p1621
sI1622
S'Ethnic minorities in Iran'
p1622
sI1623
S'John L. Sullivan'
p1623
sI1624
S'Ascot Racecourse'
p1624
sI1625
S'Savile Row'
p1625
sI1626
S'Tutu (clothing)'
p1626
sI1627
S'Zentai'
p1627
sI1628
S'Nainsook'
p1628
sI1629
S'Kapa'
p1629
sI1630
S'Yash Chopra'
p1630
sI1631
S'Priyanka Chopra'
p1631
sI1632
S'Sequin'
p1632
sI1633
S'Bilum'
p1633
sI1634
S'Elastomer'
p1634
sI1635
S'Greaser (subculture)'
p1635
sI1636
S'San Diego Comic-Con International'
p1636
sI1637
S'Gucci'
p1637
sI1638
S'Crew cut'
p1638
sI1639
S'Green beret'
p1639
sI1640
S"A Room of One's Own"
p1640
sI1641
S'Baraat'
p1641
sI1642
S'Baseball glove'
p1642
sI1643
S'Guayabera'
p1643
sI1644
S'ASTM International'
p1644
sI1645
S'Pest control'
p1645
sI1646
S'Islam and clothing'
p1646
sI1647
S'Nehru jacket'
p1647
sI1648
S'Ugg boots'
p1648
sI1649
S'Green jersey'
p1649
sI1650
S'Love beads'
p1650
sI1651
S'Stella McCartney'
p1651
sI1652
S'Polo neck'
p1652
sI1653
S'Baby sling'
p1653
sI1654
S'Sports Illustrated Swimsuit Issue'
p1654
sI1655
S'Nick Kamen'
p1655
sI1656
S'Neo-Victorian'
p1656
sI1657
S'Jingle Bells'
p1657
sI1658
S'Footloose (1984 film)'
p1658
sI1659
S'Identity (social science)'
p1659
sI1660
S'Sgian-dubh'
p1660
sI1661
S'Persianate society'
p1661
sI1662
S'Warp (weaving)'
p1662
sI1663
S'Finger wave'
p1663
sI1664
S'Patty Hill'
p1664
sI1665
S'Aventail'
p1665
sI1666
S'Old Style and New Style dates'
p1666
sI1667
S'Hem'
p1667
sI1668
S'Raffia palm'
p1668
sI1669
S'Gamsbart'
p1669
sI1670
S'Farthingale'
p1670
sI1671
S'Cilice'
p1671
sI1672
S'Selburose'
p1672
sI1673
S'Fashion week'
p1673
sI1674
S'Afro'
p1674
sI1675
S'Minutes'
p1675
sI1676
S'Sporran'
p1676
sI1677
S'Sandal'
p1677
sI1678
S'Lungi'
p1678
sI1679
S'Mundu'
p1679
sI1680
S'Bunad'
p1680
sI1681
S'Mohawk hairstyle'
p1681
sI1682
S'Avatar (computing)'
p1682
sI1683
S'Hutsuls'
p1683
sI1684
S'Cocktail party'
p1684
sI1685
S'Raja Ravi Varma'
p1685
sI1686
S'Colobium Sindonis'
p1686
sI1687
S'Category:Sleep'
p1687
sI1688
S'U.S. Consumer Product Safety Commission'
p1688
sI1689
S'Dickies'
p1689
sI1690
S'Category:Textiles'
p1690
sI1691
S'Wasp waist'
p1691
sI1692
S'Ring finger'
p1692
sI1693
S'Flannel'
p1693
sI1694
S'Category:Human appearance'
p1694
sI1695
S'Training corset'
p1695
sI1696
S'Seat belt legislation'
p1696
sI1697
S"Frederick's of Hollywood"
p1697
sI1698
S'Poncho'
p1698
sI1699
S'Dumbarton Oaks'
p1699
sI1700
S'Casino Royale (2006 film)'
p1700
sI1701
S'Shu Qi'
p1701
sI1702
S'Petasos'
p1702
sI1703
S'Tricorne'
p1703
sI1704
S'Toga party'
p1704
sI1705
S'Kenneth Cole (designer)'
p1705
sI1706
S"Puttin' On the Ritz"
p1706
sI1707
S'Petticoat'
p1707
sI1708
S'Shoemaking'
p1708
sI1709
S'Kitten heel'
p1709
sI1710
S'Fundoshi'
p1710
sI1711
S'Topshop'
p1711
sI1712
S'Mule (shoe)'
p1712
sI1713
S'Bone (corsetry)'
p1713
sI1714
S'Raksha Bandhan'
p1714
sI1715
S'Aran jumper'
p1715
sI1716
S'Khulna'
p1716
sI1717
S'History of corsets'
p1717
sI1718
S'Silhouette'
p1718
sI1719
S'Category:Western culture'
p1719
sI1720
S'Hemp'
p1720
sI1721
S'Overcoat'
p1721
sI1722
S'Category:Rooms'
p1722
sI1723
S'Nafplio'
p1723
sI1724
S'Academic scarf'
p1724
sI1725
S'Max Planck Institute for Evolutionary Anthropology'
p1725
sI1726
S'Hackle'
p1726
sI1727
S'Spaghetti strap'
p1727
sI1728
S'Drapery'
p1728
sI1729
S'Before Present'
p1729
sI1730
S'Pocket protector'
p1730
sI1731
S'DC Shoes'
p1731
sI1732
S'Fishnet'
p1732
sI1733
S'Military uniform'
p1733
sI1734
S'Wrestling shoe'
p1734
sI1735
S'Broomstick lace'
p1735
sI1736
S'History of knitting'
p1736
sI1737
S'Guy Fawkes Night'
p1737
sI1738
S'Boxer shorts'
p1738
sI1739
S'Boxer briefs'
p1739
sI1740
S'Tunic'
p1740
sI1741
S'Bridal Chorus'
p1741
sI1742
S'Armani'
p1742
sI1743
S'Bearskin'
p1743
sI1744
S'Lederhosen'
p1744
sI1745
S'Abaya'
p1745
sI1746
S'List of World War II uniforms and clothing'
p1746
sI1747
S'Tracht'
p1747
sI1748
S'Bangle'
p1748
sI1749
S'One Tree Hill (TV series)'
p1749
sI1750
S'Category:Fashion'
p1750
sI1751
S'Clayton Moore'
p1751
sI1752
S'Family reunion'
p1752
sI1753
S'Hachimaki'
p1753
sI1754
S'Happi'
p1754
sI1755
S'Calendering'
p1755
sI1756
S'Rigger boot'
p1756
sI1757
S'Girdle'
p1757
sI1758
S'Medical glove'
p1758
sI1759
S'University of Mysore'
p1759
sI1760
S'Kris Kross'
p1760
sI1761
S'Shoe size'
p1761
sI1762
S'Epiphany (holiday)'
p1762
sI1763
S'Esplanade'
p1763
sI1764
S'Polo shirt'
p1764
sI1765
S'Fess Parker'
p1765
sI1766
S'Cornrows'
p1766
sI1767
S'Tankini'
p1767
sI1768
S'Veronica Mars'
p1768
sI1769
S'Kanzashi'
p1769
sI1770
S'SchwabenQuellen'
p1770
sI1771
S'Early Christianity'
p1771
sI1772
S"My Boyfriend's Back (1993 film)"
p1772
sI1773
S'Nursing bra'
p1773
sI1774
S'Aida cloth'
p1774
sI1775
S'Category:Swimsuits'
p1775
sI1776
S'Spoon busk'
p1776
sI1777
S'Frosty the Snowman'
p1777
sI1778
S'Mesh'
p1778
sI1779
S'Geoffrey Beene'
p1779
sI1780
S'Tricia Nixon Cox'
p1780
sI1781
S'Letterman (sports)'
p1781
sI1782
S'List of holidays by country'
p1782
sI1783
S'Chonmage'
p1783
sI1784
S'Frock'
p1784
sI1785
S'Porter Wagoner'
p1785
sI1786
S'Miss Australia'
p1786
sI1787
S'School Certificate'
p1787
sI1788
S"She's All That"
p1788
sI1789
S'Physical attractiveness'
p1789
sI1790
S'Guernsey (clothing)'
p1790
sI1791
S'Cowboy hat'
p1791
sI1792
S'Hypercolor'
p1792
sI1793
S'Jinbei'
p1793
sI1794
S'Category:Hindu festivals'
p1794
sI1795
S'Guru Purnima'
p1795
sI1796
S'Category:Fetish clothing'
p1796
sI1797
S'Groomsman'
p1797
sI1798
S'Gorget'
p1798
sI1799
S'Burberry'
p1799
sI1800
S'Dyeing'
p1800
sI1801
S'History of the Southern United States'
p1801
sI1802
S'Maha Shivaratri'
p1802
sI1803
S'Chaitra'
p1803
sI1804
S'Vaisakha'
p1804
sI1805
S'Jyeshtha (month)'
p1805
sI1806
S'Agrahayana'
p1806
sI1807
S'Magha (month)'
p1807
sI1808
S'Krishna Janmashtami'
p1808
sI1809
S'Horned helmet'
p1809
sI1810
S'List of fashion designers'
p1810
sI1811
S'Down feather'
p1811
sI1812
S'The One with the Prom Video'
p1812
sI1813
S'Mess dress'
p1813
sI1814
S'Tzitzit'
p1814
sI1815
S'1860s in Western fashion'
p1815
sI1816
S'1890s in Western fashion'
p1816
sI1817
S'1870s in Western fashion'
p1817
sI1818
S'Garba (dance)'
p1818
sI1819
S'1830s in Western fashion'
p1819
sI1820
S'Jesus'
p1820
sI1821
S'Tewfik Pasha'
p1821
sI1822
S'Ohaguro'
p1822
sI1823
S'Human waste'
p1823
sI1824
S'Bustle'
p1824
sI1825
S'New Zealand Exchange'
p1825
sI1826
S'Corduroy'
p1826
sI1827
S'Palestine (region)'
p1827
sI1828
S'Earth shoe'
p1828
sI1829
S'Slide (footwear)'
p1829
sI1830
S'Annette Kellermann'
p1830
sI1831
S'Insolia'
p1831
sI1832
S'Wrangler (jeans)'
p1832
sI1833
S'Category:Ceremonial clothing'
p1833
sI1834
S'Category:Ceremonies'
p1834
sI1835
S'Cuddle party'
p1835
sI1836
S'Scroll'
p1836
sI1837
S'Soorapadam'
p1837
sI1838
S'Tyvek'
p1838
sI1839
S'Motorcycle boot'
p1839
sI1840
S'Hip boot'
p1840
sI1841
S'Cufflink'
p1841
sI1842
S'Trade fair'
p1842
sI1843
S'FashionTV'
p1843
sI1844
S'Corsage'
p1844
sI1845
S'Bicorne'
p1845
sI1846
S'Hobble skirt'
p1846
sI1847
S'Bindi (decoration)'
p1847
sI1848
S'Chlamys'
p1848
sI1849
S'Wonderbra'
p1849
sI1850
S'Flak jacket'
p1850
sI1851
S'Bhau-beej'
p1851
sI1852
S'Same-sex marriage in Denmark'
p1852
sI1853
S'J. R. Ewing'
p1853
sI1854
S'Table (furniture)'
p1854
sI1855
S'Wanda Jackson'
p1855
sI1856
S'Shoehorn'
p1856
sI1857
S'Earmuffs'
p1857
sI1858
S'Dhakai'
p1858
sI1859
S'Sabaton'
p1859
sI1860
S'Pashmina'
p1860
sI1861
S'Bhadra (month)'
p1861
sI1862
S'Ashvin'
p1862
sI1863
S'Glengarry'
p1863
sI1864
S'Roller skates'
p1864
sI1865
S'Brazilian Carnival'
p1865
sI1866
S'Kantha'
p1866
sI1867
S'Donkey jacket'
p1867
sI1868
S'Handbag'
p1868
sI1869
S'Shawl'
p1869
sI1870
S'O Holy Night'
p1870
sI1871
S'Renaissance fair'
p1871
sI1872
S'Geneva gown'
p1872
sI1873
S'Charitable organization'
p1873
sI1874
S'Sticharion'
p1874
sI1875
S'Orarion'
p1875
sI1876
S'Islam in the Philippines'
p1876
sI1877
S'Party plan'
p1877
sI1878
S'IAC (company)'
p1878
sI1879
S'Zazou'
p1879
sI1880
S'Emilio Pucci'
p1880
sI1881
S'Ao dai'
p1881
sI1882
S'Drape suit'
p1882
sI1883
S'Repertory grid'
p1883
sI1884
S'River Island'
p1884
sI1885
S'Catholic school uniform'
p1885
sI1886
S'Karthikai Deepam'
p1886
sI1887
S'Thai fisherman pants'
p1887
sI1888
S'Francis Kilvert'
p1888
sI1889
S'Chaand Raat'
p1889
sI1890
S'Malong'
p1890
sI1891
S'Glove (ice hockey)'
p1891
sI1892
S'Zone (vestment)'
p1892
sI1893
S'Epitrachelion'
p1893
sI1894
S'Veer-Zaara'
p1894
sI1895
S'Category:Business ethics'
p1895
sI1896
S'Armet'
p1896
sI1897
S'Carmagnole'
p1897
sI1898
S'Frock coat'
p1898
sI1899
S'Chamanto'
p1899
sI1900
S'China poblana'
p1900
sI1901
S'Vans'
p1901
sI1902
S'Akubra'
p1902
sI1903
S'Pith helmet'
p1903
sI1904
S'Zari'
p1904
sI1905
S'Winklepicker'
p1905
sI1906
S'Brassard'
p1906
sI1907
S'Strap'
p1907
sI1908
S'Multi Fibre Arrangement'
p1908
sI1909
S'List of types of sartorial hijab'
p1909
sI1910
S'Annaba'
p1910
sI1911
S'Omega chain'
p1911
sI1912
S'Damask'
p1912
sI1913
S'Casual (subculture)'
p1913
sI1914
S'Whipcord'
p1914
sI1915
S'Adi Godrej'
p1915
sI1916
S'Phelonion'
p1916
sI1917
S'Adventure travel'
p1917
sI1918
S'Category:Meetings'
p1918
sI1919
S'Victorian dress reform'
p1919
sI1920
S'Modal (textile)'
p1920
sI1921
S'Nightshirt'
p1921
sI1922
S'Bathrobe'
p1922
sI1923
S'Driza-Bone'
p1923
sI1924
S'Leggings'
p1924
sI1925
S'Kontusz'
p1925
sI1926
S'Pas kontuszowy'
p1926
sI1927
S'Delia (clothing)'
p1927
sI1928
S'Reza Abbasi'
p1928
sI1929
S'South Region, Brazil'
p1929
sI1930
S'Boilersuit'
p1930
sI1931
S'Bootee'
p1931
sI1932
S'Diadem'
p1932
sI1933
S'Hairdresser'
p1933
sI1934
S'Mawlid'
p1934
sI1935
S'Busby'
p1935
sI1936
S'Shahtoosh'
p1936
sI1937
S'Computer-assisted telephone interviewing'
p1937
sI1938
S'Reference.com'
p1938
sI1939
S'Psychology Today'
p1939
sI1940
S'Rastacap'
p1940
sI1941
S'Akhil Bharatiya Hindu Mahasabha'
p1941
sI1942
S'Irish linen'
p1942
sI1943
S'Fashion law'
p1943
sI1944
S'Wedding March (Mendelssohn)'
p1944
sI1945
S'Beaujolais nouveau'
p1945
sI1946
S'Christian Dior SE'
p1946
sI1947
S'Public holidays in Japan'
p1947
sI1948
S'Oxford shoe'
p1948
sI1949
S'Category:Historical dance'
p1949
sI1950
S'Deerstalker'
p1950
sI1951
S'Vaisakhi'
p1951
sI1952
S'Rochet'
p1952
sI1953
S'Chimere'
p1953
sI1954
S'We Built This City'
p1954
sI1955
S'Pageboy'
p1955
sI1956
S'Flocking (texture)'
p1956
sI1957
S'Plains Indians'
p1957
sI1958
S'Epimanikia'
p1958
sI1959
S'Boardshorts'
p1959
sI1960
S'Combat boot'
p1960
sI1961
S'Trunks (clothing)'
p1961
sI1962
S'Competitive swimwear'
p1962
sI1963
S'Swim cap'
p1963
sI1964
S'Rash guard'
p1964
sI1965
S'Puri'
p1965
sI1966
S'Argyle (pattern)'
p1966
sI1967
S'Wedding invitation'
p1967
sI1968
S'Do-rag'
p1968
sI1969
S'Lap-lap'
p1969
sI1970
S'Lava-lava'
p1970
sI1971
S'Ganesh Chaturthi'
p1971
sI1972
S'Babydoll'
p1972
sI1973
S'Peignoir'
p1973
sI1974
S'Corselet'
p1974
sI1975
S'Polka dot'
p1975
sI1976
S'Camisole'
p1976
sI1977
S'Negligee'
p1977
sI1978
S'Harrington jacket'
p1978
sI1979
S'Flight jacket'
p1979
sI1980
S'Bodice'
p1980
sI1981
S'Noil'
p1981
sI1982
S'Marriage in Islam'
p1982
sI1983
S'Wedding music'
p1983
sI1984
S'Red Serge'
p1984
sI1985
S'Rhinestone'
p1985
sI1986
S'James Stephenson'
p1986
sI1987
S'Fustanella'
p1987
sI1988
S'Gingham'
p1988
sI1989
S'Blazer'
p1989
sI1990
S'Urmila Matondkar'
p1990
sI1991
S'Nilgiri Mountain Railway'
p1991
sI1992
S'Sadie Hawkins dance'
p1992
sI1993
S'International observance'
p1993
sI1994
S'Shtreimel'
p1994
sI1995
S'Smoking jacket'
p1995
sI1996
S'Pea coat'
p1996
sI1997
S'Air Jordan'
p1997
sI1998
S'Blanket sleeper'
p1998
sI1999
S'High-technology swimwear fabric'
p1999
sI2000
S'Double cloth'
p2000
sI2001
S'French braid'
p2001
sI2002
S'Fustian'
p2002
sI2003
S'Gowni'
p2003
sI2004
S'Nakshatra'
p2004
sI2005
S'Mercerised cotton'
p2005
sI2006
S'Quaker wedding'
p2006
sI2007
S'Machilipatnam'
p2007
sI2008
S'Cestus'
p2008
sI2009
S'Sehra (headdress)'
p2009
sI2010
S'Opanak'
p2010
sI2011
S'Spodik'
p2011
sI2012
S'Krama'
p2012
sI2013
S'Fiber art'
p2013
sI2014
S'Jump boot'
p2014
sI2015
S'Tanker boot'
p2015
sI2016
S'Bachelorette party'
p2016
sI2017
S'Throwback uniform'
p2017
sI2018
S'Barong Tagalog'
p2018
sI2019
S'Agenda (meeting)'
p2019
sI2020
S'Vienna Opera Ball'
p2020
sI2021
S'Herman Miller (manufacturer)'
p2021
sI2022
S'Wristband'
p2022
sI2023
S'Bondage pants'
p2023
sI2024
S'Main Hoon Na'
p2024
sI2025
S'Startling Stories'
p2025
sI2026
S'Four Winds hat'
p2026
sI2027
S'Shitagi'
p2027
sI2028
S'Leisure suit'
p2028
sI2029
S'Dobok'
p2029
sI2030
S'Jacquard weaving'
p2030
sI2031
S'Crop top'
p2031
sI2032
S'Tagelmust'
p2032
sI2033
S'Hanbok'
p2033
sI2034
S'Cotton Incorporated'
p2034
sI2035
S'Economy of India'
p2035
sI2036
S'British diaspora in Africa'
p2036
sI2037
S'Culture of Scotland'
p2037
sI2038
S'Arm warmer'
p2038
sI2039
S'Temple (Latter Day Saints)'
p2039
sI2040
S'Organ shoes'
p2040
sI2041
S'Villena'
p2041
sI2042
S'Homburg (hat)'
p2042
sI2043
S'Jamdani'
p2043
sI2044
S'Scrimmage vest'
p2044
sI2045
S'Huaso'
p2045
sI2046
S'Headscarf'
p2046
sI2047
S'Four-in-hand knot'
p2047
sI2048
S'Vedas'
p2048
sI2049
S'Briefcase'
p2049
sI2050
S'Track spikes'
p2050
sI2051
S'Kinky boots'
p2051
sI2052
S'Sed festival'
p2052
sI2053
S'Longyi'
p2053
sI2054
S'Tracksuit'
p2054
sI2055
S'Chino cloth'
p2055
sI2056
S'Tulle netting'
p2056
sI2057
S'Highland dress'
p2057
sI2058
S'Category:Research methods'
p2058
sI2059
S'Fair Isle (technique)'
p2059
sI2060
S'Hoodie'
p2060
sI2061
S'Hiking boot'
p2061
sI2062
S'Mob cap'
p2062
sI2063
S'Teddy Boy'
p2063
sI2064
S'Pyrus communis'
p2064
sI2065
S'Ball gown'
p2065
sI2066
S'Ballerina skirt'
p2066
sI2067
S'Somalis'
p2067
sI2068
S'Shravana'
p2068
sI2069
S'Santa Claus Is Coming to Town'
p2069
sI2070
S'Skate shoe'
p2070
sI2071
S'Fake fur'
p2071
sI2072
S'Sophia Magdalena of Denmark'
p2072
sI2073
S'Afro-Caribbean'
p2073
sI2074
S'Frog (fastening)'
p2074
sI2075
S'Chelsea Arts Club'
p2075
sI2076
S'Desizing'
p2076
sI2077
S'Political uniform'
p2077
sI2078
S'Jerkin (garment)'
p2078
sI2079
S'Voile'
p2079
sI2080
S'Harris Tweed'
p2080
sI2081
S'EN 13402'
p2081
sI2082
S'Project Runway'
p2082
sI2083
S'Gauntlet (glove)'
p2083
sI2084
S'Same-sex marriage in Iceland'
p2084
sI2085
S'Same-sex marriage in Luxembourg'
p2085
sI2086
S'Pigtail'
p2086
sI2087
S'Asian conical hat'
p2087
sI2088
S'Same-sex marriage in Argentina'
p2088
sI2089
S'Dupatta'
p2089
sI2090
S'Pencil skirt'
p2090
sI2091
S'Seersucker'
p2091
sI2092
S'Stiletto heel'
p2092
sI2093
S'Boot fetishism'
p2093
sI2094
S'Danielle Crittenden'
p2094
sI2095
S'Stretching (body piercing)'
p2095
sI2096
S'Detachable collar'
p2096
sI2097
S'Tuva'
p2097
sI2098
S'Smoking cap'
p2098
sI2099
S'Woodblock printing'
p2099
sI2100
S'Culture of the Native Hawaiians'
p2100
sI2101
S'Ski suit'
p2101
sI2102
S'Macaroni (fashion)'
p2102
sI2103
S'Raja Hindustani'
p2103
sI2104
S'Elle Style Awards'
p2104
sI2105
S'Metallic fiber'
p2105
sI2106
S'Cowl'
p2106
sI2107
S'Mukluk'
p2107
sI2108
S'Sydney Royal Easter Show'
p2108
sI2109
S'Isaac Oliver'
p2109
sI2110
S'Gaberdine'
p2110
sI2111
S'The Timberland Company'
p2111
sI2112
S'Easter bonnet'
p2112
sI2113
S'History of Auvergne'
p2113
sI2114
S'Mahalakshmi Vrata'
p2114
sI2115
S'Lacoste'
p2115
sI2116
S'Flight suit'
p2116
sI2117
S'Chhath'
p2117
sI2118
S'Brigandine'
p2118
sI2119
S'Chuck Taylor All-Stars'
p2119
sI2120
S'EHarmony'
p2120
sI2121
S'Catherine, Duchess of Cambridge'
p2121
sI2122
S'Parachute pants'
p2122
sI2123
S'Lolita fashion'
p2123
sI2124
S'Galoshes'
p2124
sI2125
S'Procession'
p2125
sI2126
S'Shigmo'
p2126
sI2127
S'Bekishe'
p2127
sI2128
S'Kittel'
p2128
sI2129
S'Luckenbooth brooch'
p2129
sI2130
S'Iron-on'
p2130
sI2131
S'Hugo Boss'
p2131
sI2132
S'Tudor bonnet'
p2132
sI2133
S'Papal Slippers'
p2133
sI2134
S'Episcopal sandals'
p2134
sI2135
S'Oilskin'
p2135
sI2136
S'Battledress'
p2136
sI2137
S'Gudi Padwa'
p2137
sI2138
S'Terai'
p2138
sI2139
S'Camauro'
p2139
sI2140
S'OkCupid'
p2140
sI2141
S'Knee-high boot'
p2141
sI2142
S'The Queanbeyan Age'
p2142
sI2143
S'Apex (headdress)'
p2143
sI2144
S'Bowyangs'
p2144
sI2145
S'Australian work boot'
p2145
sI2146
S'Independent music'
p2146
sI2147
S'Ball (dance party)'
p2147
sI2148
S'Djelfa'
p2148
sI2149
S'Encaenia'
p2149
sI2150
S'Tamil calendar'
p2150
sI2151
S'Cocktail dress'
p2151
sI2152
S'Evening gown'
p2152
sI2153
S'Amaravathi (village), Guntur district'
p2153
sI2154
S'Dirndl'
p2154
sI2155
S"Prince of Denmark's March"
p2155
sI2156
S'Chuppah'
p2156
sI2157
S'Energy dome'
p2157
sI2158
S'Trucker hat'
p2158
sI2159
S'Pasties'
p2159
sI2160
S'Acid dye'
p2160
sI2161
S'Falgun'
p2161
sI2162
S'Cambric'
p2162
sI2163
S'Breeches'
p2163
sI2164
S'Full Moon Party'
p2164
sI2165
S'Feather boa'
p2165
sI2166
S'Leadenhall Street'
p2166
sI2167
S'Shoe tree'
p2167
sI2168
S'Delphos gown'
p2168
sI2169
S'Campaign hat'
p2169
sI2170
S'Side cap'
p2170
sI2171
S'Liberty spikes'
p2171
sI2172
S'Capri pants'
p2172
sI2173
S'Business park'
p2173
sI2174
S'Culottes'
p2174
sI2175
S'Clerical clothing'
p2175
sI2176
S'Uniforms of the Imperial Japanese Army'
p2176
sI2177
S'Senninbari'
p2177
sI2178
S'Montenegrin cap'
p2178
sI2179
S'Swadeshi movement'
p2179
sI2180
S'Bobby pin'
p2180
sI2181
S'Bobby soxer'
p2181
sI2182
S'Job interview'
p2182
sI2183
S'Marwar'
p2183
sI2184
S'List of World War II conferences'
p2184
sI2185
S'Peaked cap'
p2185
sI2186
S'Male reproductive system'
p2186
sI2187
S'Clothing in Africa'
p2187
sI2188
S'Woggle'
p2188
sI2189
S'Relaxation technique'
p2189
sI2190
S'Czapka'
p2190
sI2191
S'Shako'
p2191
sI2192
S'Kroje'
p2192
sI2193
S'Chamois leather'
p2193
sI2194
S'Category:National symbols'
p2194
sI2195
S'Kettle hat'
p2195
sI2196
S'Indian School of Business'
p2196
sI2197
S'Southern belle'
p2197
sI2198
S'Tilaka'
p2198
sI2199
S'Marc Jacobs'
p2199
sI2200
S'Archducal hat'
p2200
sI2201
S'Sleeve'
p2201
sI2202
S'Chatelaine (chain)'
p2202
sI2203
S'Waxed jacket'
p2203
sI2204
S'Pushan'
p2204
sI2205
S"Buddha's Birthday"
p2205
sI2206
S'Karate gi'
p2206
sI2207
S'National Institute of Fashion Technology'
p2207
sI2208
S'Bloomers (clothing)'
p2208
sI2209
S'Sakkos'
p2209
sI2210
S'Epigonation'
p2210
sI2211
S'Nabedrennik'
p2211
sI2212
S'Chinese marriage'
p2212
sI2213
S'Cleavage (breasts)'
p2213
sI2214
S'Mirrored sunglasses'
p2214
sI2215
S'Windbreaker'
p2215
sI2216
S'Columbia University Press'
p2216
sI2217
S'Aiguillette'
p2217
sI2218
S'Cappello romano'
p2218
sI2219
S'Agent Provocateur (lingerie)'
p2219
sI2220
S'Memorial bracelet'
p2220
sI2221
S'Engolpion'
p2221
sI2222
S'Sweater girl'
p2222
sI2223
S'Ethical movement'
p2223
sI2224
S'Chantilly lace'
p2224
sI2225
S'Koto (traditional clothing)'
p2225
sI2226
S'Fanny pack'
p2226
sI2227
S'Stole (shawl)'
p2227
sI2228
S'Maidenform'
p2228
sI2229
S'Topor (headgear)'
p2229
sI2230
S'Sridevi'
p2230
sI2231
S'Clerical collar'
p2231
sI2232
S'Active vacation'
p2232
sI2233
S'Doublet (clothing)'
p2233
sI2234
S'Chinese alchemy'
p2234
sI2235
S'Guimet Museum'
p2235
sI2236
S'Size zero'
p2236
sI2237
S'Upturned collar'
p2237
sI2238
S'Intarsia (knitting)'
p2238
sI2239
S'Acrylic fiber'
p2239
sI2240
S'Swaddling'
p2240
sI2241
S'Mantua (clothing)'
p2241
sI2242
S'Boss Hogg'
p2242
sI2243
S'Burka (Caucasus)'
p2243
sI2244
S'Pectoral cross'
p2244
sI2245
S'Brioni (brand)'
p2245
sI2246
S'Circlet'
p2246
sI2247
S'Klobuk'
p2247
sI2248
S'Kalimavkion'
p2248
sI2249
S'Epanokalimavkion'
p2249
sI2250
S'Filet lace'
p2250
sI2251
S'Lappet'
p2251
sI2252
S'Mandilion'
p2252
sI2253
S'List of festivals in Fiji'
p2253
sI2254
S'Anti-prom'
p2254
sI2255
S'Corinthian helmet'
p2255
sI2256
S'Settlement conference'
p2256
sI2257
S'Carpet bag'
p2257
sI2258
S'Chima jeogori'
p2258
sI2259
S'Aegle marmelos'
p2259
sI2260
S'Officium (Ancient Rome)'
p2260
sI2261
S'Puthandu'
p2261
sI2262
S'Birkenstock'
p2262
sI2263
S'Point de Venise'
p2263
sI2264
S'Argentan lace'
p2264
sI2265
S'Limerick lace'
p2265
sI2266
S'Reticella'
p2266
sI2267
S'Tambour lace'
p2267
sI2268
S'Teneriffe lace'
p2268
sI2269
S'Buckskin (leather)'
p2269
sI2270
S'Buckskins'
p2270
sI2271
S'Teddy (garment)'
p2271
sI2272
S'Keikogi'
p2272
sI2273
S'Chintz'
p2273
sI2274
S'Judogi'
p2274
sI2275
S'Pattern (sewing)'
p2275
sI2276
S'Prairie skirt'
p2276
sI2277
S'Festa Junina'
p2277
sI2278
S'Culture of Cornwall'
p2278
sI2279
S'Buskin'
p2279
sI2280
S'Broderie anglaise'
p2280
sI2281
S'Carrickmacross lace'
p2281
sI2282
S'Antwerp lace'
p2282
sI2283
S'Artificial leather'
p2283
sI2284
S'John Gorka'
p2284
sI2285
S'Muslim holidays'
p2285
sI2286
S'Plus fours'
p2286
sI2287
S'Hum Aapke Hain Koun..!'
p2287
sI2288
S'Duster (clothing)'
p2288
sI2289
S'Cutty-sark (witch)'
p2289
sI2290
S'Monster.com'
p2290
sI2291
S'Gimp (thread)'
p2291
sI2292
S'Tressoir'
p2292
sI2293
S'Infant bodysuit'
p2293
sI2294
S'Plastic pants'
p2294
sI2295
S'Adaptive clothing'
p2295
sI2296
S'Skufia'
p2296
sI2297
S'Bunty Aur Babli'
p2297
sI2298
S'Dress shirt'
p2298
sI2299
S'Football boot'
p2299
sI2300
S'Apostolnik'
p2300
sI2301
S'Slip (clothing)'
p2301
sI2302
S'Caribbean Examinations Council'
p2302
sI2303
S'Robert Sapolsky'
p2303
sI2304
S'Choir dress'
p2304
sI2305
S'Spindle (textiles)'
p2305
sI2306
S'Tupenu'
p2306
sI2307
S'Hi-top fade'
p2307
sI2308
S'Mewar'
p2308
sI2309
S'Rogatywka'
p2309
sI2310
S'American Apparel'
p2310
sI2311
S'Vidya Balan'
p2311
sI2312
S'Ascot tie'
p2312
sI2313
S'Hardee hat'
p2313
sI2314
S'Never Been Kissed'
p2314
sI2315
S'Shoulder strap'
p2315
sI2316
S'New American Library'
p2316
sI2317
S'Sita'
p2317
sI2318
S'Papal shoes'
p2318
sI2319
S'Sacred mysteries'
p2319
sI2320
S'East Asian age reckoning'
p2320
sI2321
S'Black beret'
p2321
sI2322
S'Vat Purnima'
p2322
sI2323
S'Category:Cosplay'
p2323
sI2324
S'Hospitality'
p2324
sI2325
S'Rihanna'
p2325
sI2326
S'Spats (footwear)'
p2326
sI2327
S'Pinafore'
p2327
sI2328
S'Snap fastener'
p2328
sI2329
S'Beetling'
p2329
sI2330
S'Heel (shoe)'
p2330
sI2331
S'Aikidogi'
p2331
sI2332
S'Khadi'
p2332
sI2333
S'Duffle coat'
p2333
sI2334
S'J.Crew'
p2334
sI2335
S'Uniform and insignia of the Boy Scouts of America'
p2335
sI2336
S'Athletic conference'
p2336
sI2337
S'Hoop skirt'
p2337
sI2338
S'Pannier (clothing)'
p2338
sI2339
S'Miai'
p2339
sI2340
S'Bun (hairstyle)'
p2340
sI2341
S'Smock-frock'
p2341
sI2342
S'Tapa cloth'
p2342
sI2343
S'Artistic Dress movement'
p2343
sI2344
S'Textile manufacturing'
p2344
sI2345
S'Ruff (clothing)'
p2345
sI2346
S'Hose (clothing)'
p2346
sI2347
S'Percale'
p2347
sI2348
S'Belted plaid'
p2348
sI2349
S'2012 Summer Olympics'
p2349
sI2350
S'Finding'
p2350
sI2351
S'Party hat'
p2351
sI2352
S'Duffel bag'
p2352
sI2353
S'Independent Catholic churches'
p2353
sI2354
S'Plimsoll shoe'
p2354
sI2355
S'Michelle Obama'
p2355
sI2356
S'Saran (plastic)'
p2356
sI2357
S'Anarkali'
p2357
sI2358
S'Student boilersuit'
p2358
sI2359
S'Bindle'
p2359
sI2360
S'Hessian fabric'
p2360
sI2361
S'Piccadill'
p2361
sI2362
S'Jewish hat'
p2362
sI2363
S'Shambhala Publications'
p2363
sI2364
S'Semi-casual'
p2364
sI2365
S'Semi-formal'
p2365
sI2366
S'Ceremonial dress'
p2366
sI2367
S'Quad-City Times'
p2367
sI2368
S'Buff (colour)'
p2368
sI2369
S'Asharh'
p2369
sI2370
S'Koteka'
p2370
sI2371
S'Hindu wedding'
p2371
sI2372
S'Aures, Algeria'
p2372
sI2373
S'Sati (goddess)'
p2373
sI2374
S'Bustier'
p2374
sI2375
S'Hindu temple'
p2375
sI2376
S'Brothel creeper'
p2376
sI2377
S'Cavalry in the American Civil War'
p2377
sI2378
S'Alginic acid'
p2378
sI2379
S'Tea gown'
p2379
sI2380
S'Chenille fabric'
p2380
sI2381
S'Oxford (cloth)'
p2381
sI2382
S'Money clip'
p2382
sI2383
S'Korean Wave'
p2383
sI2384
S'Quoit brooch'
p2384
sI2385
S'Islamic marriage contract'
p2385
sI2386
S'J. C. Leyendecker'
p2386
sI2387
S'Nihang'
p2387
sI2388
S'Geotextile'
p2388
sI2389
S'Coif'
p2389
sI2390
S'Forced marriage'
p2390
sI2391
S'Puttee'
p2391
sI2392
S'Missionary dating'
p2392
sI2393
S'Persian weave'
p2393
sI2394
S'Aboyne dress'
p2394
sI2395
S'University of California Press'
p2395
sI2396
S'Perry Ellis'
p2396
sI2397
S'Southeast Christian Church (Louisville, Kentucky)'
p2397
sI2398
S'Dorothy Perkins'
p2398
sI2399
S'Velveteen'
p2399
sI2400
S'Qiviut'
p2400
sI2401
S'Durbar (court)'
p2401
sI2402
S'Urban culture'
p2402
sI2403
S'Candlewicking'
p2403
sI2404
S'Empire silhouette'
p2404
sI2405
S'Hair crimping'
p2405
sI2406
S'Meeting and convention planner'
p2406
sI2407
S'The Prom (Buffy the Vampire Slayer)'
p2407
sI2408
S'Topping out'
p2408
sI2409
S'Gartel'
p2409
sI2410
S'Montera'
p2410
sI2411
S'Orion Publishing Group'
p2411
sI2412
S'Rabbit hair'
p2412
sI2413
S'Temple car'
p2413
sI2414
S'Aigrette'
p2414
sI2415
S'Madisar'
p2415
sI2416
S'Kumkuma'
p2416
sI2417
S'Mangala sutra'
p2417
sI2418
S'Halterneck'
p2418
sI2419
S'Sateen'
p2419
sI2420
S'Ninon'
p2420
sI2421
S'Jutti'
p2421
sI2422
S'Holiday heart syndrome'
p2422
sI2423
S'Toe socks'
p2423
sI2424
S'The Sunday Mail (Brisbane)'
p2424
sI2425
S'Yashmak'
p2425
sI2426
S'Brogue shoe'
p2426
sI2427
S'Sleeveless shirt'
p2427
sI2428
S'Messenger bag'
p2428
sI2429
S'Harry Potter'
p2429
sI2430
S'Layette'
p2430
sI2431
S'Location (geography)'
p2431
sI2432
S'Friendship Day'
p2432
sI2433
S'Ziryab'
p2433
sI2434
S'Rubber glove'
p2434
sI2435
S'Corsage (bodice)'
p2435
sI2436
S'Bondage corset'
p2436
sI2437
S'Mode of transport'
p2437
sI2438
S'Undershirt'
p2438
sI2439
S'Liz Claiborne (fashion designer)'
p2439
sI2440
S'Golden hat'
p2440
sI2441
S'Valley Girl (film)'
p2441
sI2442
S'Forage cap'
p2442
sI2443
S'French twist (hairstyle)'
p2443
sI2444
S'Pointed hat'
p2444
sI2445
S'Al Mukalla'
p2445
sI2446
S'Gugel'
p2446
sI2447
S'Sound recording and reproduction'
p2447
sI2448
S'Driglam namzha'
p2448
sI2449
S'Academic conference'
p2449
sI2450
S'Bhutan'
p2450
sI2451
S'Yoruba music'
p2451
sI2452
S'Fur clothing'
p2452
sI2453
S'Hat Act'
p2453
sI2454
S'Dark adaptor goggles'
p2454
sI2455
S'Zac Posen'
p2455
sI2456
S'Japanese sword mountings'
p2456
sI2457
S'Hanuman Jayanti'
p2457
sI2458
S'Michael Kors'
p2458
sI2459
S'Horsehair'
p2459
sI2460
S'White coat'
p2460
sI2461
S'Artificial hair integrations'
p2461
sI2462
S'Hatpin'
p2462
sI2463
S'Structured interview'
p2463
sI2464
S'Symposium (disambiguation)'
p2464
sI2465
S'Kasa (hat)'
p2465
sI2466
S'Otavalo (city)'
p2466
sI2467
S'Category:Educational stages'
p2467
sI2468
S'Cretonne'
p2468
sI2469
S'Crakow (shoe)'
p2469
sI2470
S'Budenovka'
p2470
sI2471
S'Parure'
p2471
sI2472
S'Kosovorotka'
p2472
sI2473
S'We Wish You a Merry Christmas'
p2473
sI2474
S'Mary Jane (shoe)'
p2474
sI2475
S'Prom Night (1980 film)'
p2475
sI2476
S'Valenki'
p2476
sI2477
S'Henley shirt'
p2477
sI2478
S'Sarafan'
p2478
sI2479
S'Cleanroom suit'
p2479
sI2480
S'Petticoat breeches'
p2480
sI2481
S'Rhinegraves'
p2481
sI2482
S'Shagreen'
p2482
sI2483
S'BarCamp'
p2483
sI2484
S'Gaiters'
p2484
sI2485
S'Nosegay'
p2485
sI2486
S'Obi (sash)'
p2486
sI2487
S'List of festivals in Laos'
p2487
sI2488
S'Bandhani'
p2488
sI2489
S'Dickey (garment)'
p2489
sI2490
S'International Congress Calendar'
p2490
sI2491
S'Wide leg jeans'
p2491
sI2492
S'Joachim Heinrich Campe'
p2492
sI2493
S'Sailor suit'
p2493
sI2494
S'American Pie (film)'
p2494
sI2495
S'Ottoman clothing'
p2495
sI2496
S'Byzantine dress'
p2496
sI2497
S'Parineeta (2005 film)'
p2497
sI2498
S'Bereavement in Judaism'
p2498
sI2499
S'Loculus (satchel)'
p2499
sI2500
S'Lorgnette'
p2500
sI2501
S'Communion (Christian)'
p2501
sI2502
S'Wedding videography'
p2502
sI2503
S'Platform boot'
p2503
sI2504
S'War bonnet'
p2504
sI2505
S'Dubstep'
p2505
sI2506
S'Nudie Cohn'
p2506
sI2507
S'Norfolk jacket'
p2507
sI2508
S'Headband'
p2508
sI2509
S'Barrette'
p2509
sI2510
S'Tjurunga'
p2510
sI2511
S'Bedgown'
p2511
sI2512
S'Sennit'
p2512
sI2513
S'Tie clip'
p2513
sI2514
S'Gho'
p2514
sI2515
S'Kira (Bhutan)'
p2515
sI2516
S'Gyaru'
p2516
sI2517
S'Puletasi'
p2517
sI2518
S'Sparrow Hills'
p2518
sI2519
S'M-1965 field jacket'
p2519
sI2520
S'Cycling shorts'
p2520
sI2521
S'Cycling shoe'
p2521
sI2522
S'Dashiki'
p2522
sI2523
S'Nankeen'
p2523
sI2524
S'Paithani'
p2524
sI2525
S'Fetish club'
p2525
sI2526
S'Twinset'
p2526
sI2527
S'Kabney'
p2527
sI2528
S'Match.com'
p2528
sI2529
S'List of festivals in Colombia'
p2529
sI2530
S"Rabi' al-awwal"
p2530
sI2531
S'Toile'
p2531
sI2532
S'Taffeta'
p2532
sI2533
S'Opera coat'
p2533
sI2534
S'Heelys'
p2534
sI2535
S'Gauge (knitting)'
p2535
sI2536
S'Chakravartin'
p2536
sI2537
S'Coonskin cap'
p2537
sI2538
S'Horn-rimmed glasses'
p2538
sI2539
S'Puran Poli'
p2539
sI2540
S'Engineer boot'
p2540
sI2541
S'Deely bobber'
p2541
sI2542
S'Kebaya'
p2542
sI2543
S'Slap bracelet'
p2543
sI2544
S'Ben Sherman'
p2544
sI2545
S'Ascot cap'
p2545
sI2546
S'Kufi'
p2546
sI2547
S'Sweet sixteen (birthday)'
p2547
sI2548
S'Trade Me'
p2548
sI2549
S'Natural fiber'
p2549
sI2550
S'Persian miniature'
p2550
sI2551
S'Mackinaw cloth'
p2551
sI2552
S'Meena Kumari'
p2552
sI2553
S"Children's clothing"
p2553
sI2554
S'Traditional dyes of the Scottish Highlands'
p2554
sI2555
S'Dongzhi (solar term)'
p2555
sI2556
S'Papal fanon'
p2556
sI2557
S'Bast fibre'
p2557
sI2558
S'Great helm'
p2558
sI2559
S'Cap of Maintenance'
p2559
sI2560
S'Sherwani'
p2560
sI2561
S'Jodhpuri'
p2561
sI2562
S'Half-Windsor knot'
p2562
sI2563
S'Pratt knot'
p2563
sI2564
S'Bouffant'
p2564
sI2565
S'Frederick Arthur Bridgman'
p2565
sI2566
S'Belt buckle'
p2566
sI2567
S'Cycling glove'
p2567
sI2568
S'Grecian bend'
p2568
sI2569
S'Charm bracelet'
p2569
sI2570
S'Vat dye'
p2570
sI2571
S'Papoose'
p2571
sI2572
S'Bridal shower'
p2572
sI2573
S'Western Australian Museum'
p2573
sI2574
S'Aboriginal Australians'
p2574
sI2575
S'Teen Vogue'
p2575
sI2576
S'Dimity'
p2576
sI2577
S'Trews'
p2577
sI2578
S'Disruptive Pattern Material'
p2578
sI2579
S'Grain (textile)'
p2579
sI2580
S'Partition of Bengal (1905)'
p2580
sI2581
S'Sagging (fashion)'
p2581
sI2582
S'Pollera'
p2582
sI2583
S'Burnous'
p2583
sI2584
S'List of festivals in Turkey'
p2584
sI2585
S'1990s in fashion'
p2585
sI2586
S'Cuff'
p2586
sI2587
S'Dunce'
p2587
sI2588
S'Uttarayana'
p2588
sI2589
S'Marie Anne de Cupis de Camargo'
p2589
sI2590
S'Bast shoe'
p2590
sI2591
S'List of festivals in Iran'
p2591
sI2592
S'Konkani people'
p2592
sI2593
S'Chiffon (fabric)'
p2593
sI2594
S'Tignon'
p2594
sI2595
S'Piazza Armerina'
p2595
sI2596
S'Western India'
p2596
sI2597
S'Jupe (jacket)'
p2597
sI2598
S'Goatskin (material)'
p2598
sI2599
S"Builders' rites"
p2599
sI2600
S'Sheepskin'
p2600
sI2601
S'Lambswool'
p2601
sI2602
S'Waistline (clothing)'
p2602
sI2603
S'Mariacarla Boscono'
p2603
sI2604
S'Nazi chic'
p2604
sI2605
S'Feather cloak'
p2605
sI2606
S'Navajo'
p2606
sI2607
S'Cargo pants'
p2607
sI2608
S'Full dress'
p2608
sI2609
S'Foundation garment'
p2609
sI2610
S'NBA dress code'
p2610
sI2611
S'Chikan (embroidery)'
p2611
sI2612
S'Choli'
p2612
sI2613
S'List of grands couturiers'
p2613
sI2614
S'Breeks'
p2614
sI2615
S'Mohammed Alim Khan'
p2615
sI2616
S'Bust/waist/hip measurements'
p2616
sI2617
S'Court shoe'
p2617
sI2618
S'Narakasura'
p2618
sI2619
S'Goodyear welt'
p2619
sI2620
S'Houndstooth'
p2620
sI2621
S'Evening glove'
p2621
sI2622
S'Movember'
p2622
sI2623
S'Shadbelly'
p2623
sI2624
S'East India House'
p2624
sI2625
S'Sport coat'
p2625
sI2626
S'Arab states of the Persian Gulf'
p2626
sI2627
S'Camel hair'
p2627
sI2628
S'Pew Research Center'
p2628
sI2629
S'Pantalettes'
p2629
sI2630
S'Category:History of fashion'
p2630
sI2631
S'1840s in Western fashion'
p2631
sI2632
S'Ballet boot'
p2632
sI2633
S'Wedding photography'
p2633
sI2634
S'1850s in Western fashion'
p2634
sI2635
S"Casquette d'Afrique"
p2635
sI2636
S'Hobo bag'
p2636
sI2637
S'Dress uniform'
p2637
sI2638
S'Forever 21'
p2638
sI2639
S'Category:1970s fashion'
p2639
sI2640
S"M'zab"
p2640
sI2641
S'Nehemiah'
p2641
sI2642
S'Vintage clothing'
p2642
sI2643
S'Maquinna'
p2643
sI2644
S'Student cap'
p2644
sI2645
S'R. Tait McKenzie'
p2645
sI2646
S'Lurex'
p2646
sI2647
S'Chayei Sarah'
p2647
sI2648
S'Senufo Bird'
p2648
sI2649
S'Banarasi sari'
p2649
sI2650
S'Edmund Leighton'
p2650
sI2651
S'Event management'
p2651
sI2652
S"Women's Wear Daily"
p2652
sI2653
S'Lagetta lagetto'
p2653
sI2654
S'Dolman'
p2654
sI2655
S'Maillot'
p2655
sI2656
S'Japanese street fashion'
p2656
sI2657
S'Conflict of marriage laws'
p2657
sI2658
S'Textile printing'
p2658
sI2659
S'Ring size'
p2659
sI2660
S'Unconference'
p2660
sI2661
S'Cap (sport)'
p2661
sI2662
S'Fashion doll'
p2662
sI2663
S'Tubeteika'
p2663
sI2664
S'Peter Pan collar'
p2664
sI2665
S'Silver Bells'
p2665
sI2666
S'Rebozo'
p2666
sI2667
S'Longcloth'
p2667
sI2668
S'Sameera Reddy'
p2668
sI2669
S'Sheva Brachot'
p2669
sI2670
S'Get (divorce document)'
p2670
sI2671
S'Dopp kit'
p2671
sI2672
S'Low-rise pants'
p2672
sI2673
S'Pantsuit'
p2673
sI2674
S'Caipira'
p2674
sI2675
S'Guru Nanak Gurpurab'
p2675
sI2676
S'Trim (sewing)'
p2676
sI2677
S'Chiton (costume)'
p2677
sI2678
S'Himation'
p2678
sI2679
S'Collar (clothing)'
p2679
sI2680
S'Collar (jewelry)'
p2680
sI2681
S'Livery collar'
p2681
sI2682
S'Beer festival'
p2682
sI2683
S'Buttonhole'
p2683
sI2684
S'Jockey International'
p2684
sI2685
S'Namdhari'
p2685
sI2686
S'Stomacher'
p2686
sI2687
S'Category:Conferences'
p2687
sI2688
S'Buddhism'
p2688
sI2689
S'Formal Thai national costume'
p2689
sI2690
S'Summit (meeting)'
p2690
sI2691
S'Christmas controversy'
p2691
sI2692
S'Black cap'
p2692
sI2693
S'Miuccia Prada'
p2693
sI2694
S'Radhastami'
p2694
sI2695
S'Ringer T-shirt'
p2695
sI2696
S'Tippet'
p2696
sI2697
S'Stock tie'
p2697
sI2698
S'Single-breasted'
p2698
sI2699
S'Three quarter pants'
p2699
sI2700
S'Hip-huggers'
p2700
sI2701
S'Double-breasted'
p2701
sI2702
S'Same-sex marriage in New Zealand'
p2702
sI2703
S'Midriff'
p2703
sI2704
S'Engageante'
p2704
sI2705
S'Kaross'
p2705
sI2706
S'Educational stage'
p2706
sI2707
S'Category:Youth culture'
p2707
sI2708
S'Poke bonnet'
p2708
sI2709
S'Bernos'
p2709
sI2710
S'Pledge pin'
p2710
sI2711
S'Coty Award'
p2711
sI2712
S'Hairnet'
p2712
sI2713
S'Mantilla'
p2713
sI2714
S'Chemisette'
p2714
sI2715
S'AFL Grand Final'
p2715
sI2716
S'Gale (publisher)'
p2716
sI2717
S'Category:1980s fashion'
p2717
sI2718
S'Burgonet'
p2718
sI2719
S'Sailcloth'
p2719
sI2720
S'London Fashion Week'
p2720
sI2721
S"Debrett's"
p2721
sI2722
S'Outlet store'
p2722
sI2723
S'Grill (jewelry)'
p2723
sI2724
S'United States'
p2724
sI2725
S'Dance belt'
p2725
sI2726
S'Convention'
p2726
sI2727
S'Convention (meeting)'
p2727
sI2728
S'Hairpin lace'
p2728
sI2729
S'Pile weave'
p2729
sI2730
S'Cricket helmet'
p2730
sI2731
S'Mandarin collar'
p2731
sI2732
S'Zephyr (garment)'
p2732
sI2733
S'Fort Apache (film)'
p2733
sI2734
S'Waist (clothing)'
p2734
sI2735
S'Denison smock'
p2735
sI2736
S'Abolla'
p2736
sI2737
S'Drive Me Crazy'
p2737
sI2738
S'Equality before the law'
p2738
sI2739
S'Gel bracelet'
p2739
sI2740
S'Batsuit'
p2740
sI2741
S'Polyester'
p2741
sI2742
S'Same-sex marriage in Brazil'
p2742
sI2743
S'Birkat Hamazon'
p2743
sI2744
S'YouTube'
p2744
sI2745
S'Latex clothing'
p2745
sI2746
S'Uniqlo'
p2746
sI2747
S'Lavalier'
p2747
sI2748
S'Lifestyle travelling'
p2748
sI2749
S'Jelly shoes'
p2749
sI2750
S'History of jewellery in Ukraine'
p2750
sI2751
S'Ring (jewellery)'
p2751
sI2752
S'Arm ring'
p2752
sI2753
S'Military camouflage'
p2753
sI2754
S'Edible underwear'
p2754
sI2755
S'Pakol'
p2755
sI2756
S'Trinidad and Tobago'
p2756
sI2757
S'Telugu people'
p2757
sI2758
S'Crop (hairstyle)'
p2758
sI2759
S'Deck the Halls'
p2759
sI2760
S'History of Western fashion'
p2760
sI2761
S'Spectator shoe'
p2761
sI2762
S'Jawbreaker (film)'
p2762
sI2763
S'Jackboot'
p2763
sI2764
S'Disruptive Pattern Camouflage Uniform'
p2764
sI2765
S'Ballet shoe'
p2765
sI2766
S'Riding habit'
p2766
sI2767
S'Satyabhama'
p2767
sI2768
S'Liripipe'
p2768
sI2769
S'Malaysia'
p2769
sI2770
S'Afghan (blanket)'
p2770
sI2771
S'Fashion cigarettes'
p2771
sI2772
S'In kind'
p2772
sI2773
S'Jodhpurs'
p2773
sI2774
S'Tigerstripe'
p2774
sI2775
S'Tarun Tahiliani'
p2775
sI2776
S'Layered hair'
p2776
sI2777
S'Category:Garment industry'
p2777
sI2778
S'Religious habit'
p2778
sI2779
S'Furisode'
p2779
sI2780
S'Blind Date (U.S. TV series)'
p2780
sI2781
S'George Shaw (academic dress scholar)'
p2781
sI2782
S'Keds (shoes)'
p2782
sI2783
S'Cool Biz campaign'
p2783
sI2784
S'Dot-com company'
p2784
sI2785
S'1820s in Western fashion'
p2785
sI2786
S'Jijel'
p2786
sI2787
S'Institute for Global Labour and Human Rights'
p2787
sI2788
S'Gusset'
p2788
sI2789
S'Livrustkammaren'
p2789
sI2790
S'Pillbox hat'
p2790
sI2791
S'1980s in Western fashion'
p2791
sI2792
S'Angusticlavia'
p2792
sI2793
S'Brahma Purana'
p2793
sI2794
S'Sperry Top-Sider'
p2794
sI2795
S'Bullock cart'
p2795
sI2796
S'Mary Poppins'
p2796
sI2797
S'Backcombing'
p2797
sI2798
S'Chelsea boot'
p2798
sI2799
S'Gat (hat)'
p2799
sI2800
S'Court uniform and dress in the United Kingdom'
p2800
sI2801
S'Kumihimo'
p2801
sI2802
S'Snickers (workwear)'
p2802
sI2803
S'Tweed (cloth)'
p2803
sI2804
S'Whale tail'
p2804
sI2805
S'Italian charm bracelet'
p2805
sI2806
S'East India'
p2806
sI2807
S'Capuchon'
p2807
sI2808
S'Huipil'
p2808
sI2809
S'Placket'
p2809
sI2810
S'British Fashion Awards'
p2810
sI2811
S'Facing colour'
p2811
sI2812
S'Celtic nations'
p2812
sI2813
S'Ladder interview'
p2813
sI2814
S'Raglan sleeve'
p2814
sI2815
S'1880s in Western fashion'
p2815
sI2816
S'Barbute'
p2816
sI2817
S'New York Comic Con'
p2817
sI2818
S'Crayfish party'
p2818
sI2819
S'Boxing glove'
p2819
sI2820
S'Kausia'
p2820
sI2821
S'Extraocular implant'
p2821
sI2822
S'Same-sex marriage in Portugal'
p2822
sI2823
S'Lapel'
p2823
sI2824
S'Phulkari'
p2824
sI2825
S'Kurdish clothing'
p2825
sI2826
S'Hourglass corset'
p2826
sI2827
S'Mary Brooks Picken'
p2827
sI2828
S'Moccasin'
p2828
sI2829
S'Mexico'
p2829
sI2830
S'Ouargla'
p2830
sI2831
S'Tindouf'
p2831
sI2832
S'Terrycloth'
p2832
sI2833
S'Category:Evaluation methods'
p2833
sI2834
S'Pareo'
p2834
sI2835
S'Lobster-tailed pot helmet'
p2835
sI2836
S'Dress shoe'
p2836
sI2837
S'Cotton duck'
p2837
sI2838
S'Pelisse'
p2838
sI2839
S'Gangaur'
p2839
sI2840
S'Wrapper (clothing)'
p2840
sI2841
S'Petite size'
p2841
sI2842
S'Vanity sizing'
p2842
sI2843
S'Serbian traditional clothing'
p2843
sI2844
S'Upper Carniola'
p2844
sI2845
S'Big hair'
p2845
sI2846
S'Helen Fisher (anthropologist)'
p2846
sI2847
S'Hessian (boot)'
p2847
sI2848
S'Head tie'
p2848
sI2849
S'St. Tropez belt'
p2849
sI2850
S'Value (ethics)'
p2850
sI2851
S'Sheepskin boots'
p2851
sI2852
S'Kiondo'
p2852
sI2853
S'Anna Hazare'
p2853
sI2854
S'Unbirthday'
p2854
sI2855
S'Chandni'
p2855
sI2856
S'Skeleton suit'
p2856
sI2857
S'Laurel wreath'
p2857
sI2858
S'Bermuda shorts'
p2858
sI2859
S'Halston'
p2859
sI2860
S'Redingote'
p2860
sI2861
S'Pakeezah'
p2861
sI2862
S'Government Houses of the British Empire and Commonwealth'
p2862
sI2863
S'Phat pants'
p2863
sI2864
S'FashionTelevision'
p2864
sI2865
S'Kilt accessories'
p2865
sI2866
S'Equestrian helmet'
p2866
sI2867
S'Bengalis'
p2867
sI2868
S'Polonaise (clothing)'
p2868
sI2869
S'Gown'
p2869
sI2870
S'British Raj'
p2870
sI2871
S'Nonwoven fabric'
p2871
sI2872
S'Modern girl'
p2872
sI2873
S"Conan O'Brien"
p2873
sI2874
S'Bobby sock'
p2874
sI2875
S'Category:Pakistani clothing'
p2875
sI2876
S'Frank Dicksee'
p2876
sI2877
S'Andalusians'
p2877
sI2878
S'Claire McCardell'
p2878
sI2879
S'2000s in fashion'
p2879
sI2880
S'Tim Gunn'
p2880
sI2881
S'Self-fabric'
p2881
sI2882
S'Humanist Society Scotland'
p2882
sI2883
S'Prom queen'
p2883
sI2884
S'Battle Dress'
p2884
sI2885
S'Motoring hood'
p2885
sI2886
S'Almabtrieb'
p2886
sI2887
S'Vasant Panchami'
p2887
sI2888
S'Augustus, Elector of Saxony'
p2888
sI2889
S'Business tourism'
p2889
sI2890
S'Hatstand'
p2890
sI2891
S'The Rules'
p2891
sI2892
S'Robert Propst (inventor)'
p2892
sI2893
S'Action Office'
p2893
sI2894
S'Spangenhelm'
p2894
sI2895
S'Kerala'
p2895
sI2896
S'Opening ceremony'
p2896
sI2897
S'Narciso Rodriguez'
p2897
sI2898
S'Red coat (British Army and Royal Marines)'
p2898
sI2899
S'Taiwanese people'
p2899
sI2900
S'Chausses'
p2900
sI2901
S'Gauze'
p2901
sI2902
S'Mempo'
p2902
sI2903
S'Polar fleece'
p2903
sI2904
S'Jubba'
p2904
sI2905
S'Nanofiber'
p2905
sI2906
S"Chef's uniform"
p2906
sI2907
S'Crusades'
p2907
sI2908
S"Matron's badge"
p2908
sI2909
S'Boot jack'
p2909
sI2910
S'Cockernonnie'
p2910
sI2911
S'Naked party'
p2911
sI2912
S'Academic stole'
p2912
sI2913
S'Pleat'
p2913
sI2914
S'Banyan (clothing)'
p2914
sI2915
S'Tunica molesta'
p2915
sI2916
S'Organza'
p2916
sI2917
S'Category:Bangladeshi clothing'
p2917
sI2918
S'Hennin'
p2918
sI2919
S'Office management'
p2919
sI2920
S'Business Casual (Beep Beep album)'
p2920
sI2921
S'Pedal pushers'
p2921
sI2922
S'Songket'
p2922
sI2923
S'Patiala salwar'
p2923
sI2924
S'Santa suit'
p2924
sI2925
S'Catholicism'
p2925
sI2926
S'Unit Colour Patch'
p2926
sI2927
S'A-2 jacket'
p2927
sI2928
S'Khalat'
p2928
sI2929
S'Manish Malhotra'
p2929
sI2930
S'Category:Office administration'
p2930
sI2931
S'Veja Sneakers'
p2931
sI2932
S'Teesri Manzil'
p2932
sI2933
S'Racing flat'
p2933
sI2934
S'Sacred Name Movement'
p2934
sI2935
S'Satchel'
p2935
sI2936
S'Jamawar'
p2936
sI2937
S'Cutsew'
p2937
sI2938
S'Dastar'
p2938
sI2939
S'Rally cap'
p2939
sI2940
S'Bycoket'
p2940
sI2941
S'International Best Dressed List'
p2941
sI2942
S'Category:1950s fashion'
p2942
sI2943
S'Clothing laws by country'
p2943
sI2944
S'Temple ring'
p2944
sI2945
S'Moon Boot'
p2945
sI2946
S'Australia'
p2946
sI2947
S'Plus-size clothing'
p2947
sI2948
S"Infant's binder"
p2948
sI2949
S'Chignon (hairstyle)'
p2949
sI2950
S'Lemon Popsicle'
p2950
sI2951
S'Physical training uniform'
p2951
sI2952
S'Corslet'
p2952
sI2953
S'Gaming law'
p2953
sI2954
S'World War I'
p2954
sI2955
S'Yissocher Frand'
p2955
sI2956
S'Jewish wedding'
p2956
sI2957
S'Mantelletta'
p2957
sI2958
S'Kandy Esala Perahera'
p2958
sI2959
S'Quakers'
p2959
sI2960
S'Headgear (martial arts)'
p2960
sI2961
S'Telnyashka'
p2961
sI2962
S'Lady Gabriella Windsor'
p2962
sI2963
S'Khara dupatta'
p2963
sI2964
S'The Sound of Music (film)'
p2964
sI2965
S'Marathi people'
p2965
sI2966
S'Hanes'
p2966
sI2967
S'Wellington Sevens'
p2967
sI2968
S'Ugly Betty'
p2968
sI2969
S'Category:Indian clothing'
p2969
sI2970
S'Karakul (hat)'
p2970
sI2971
S'Achkan'
p2971
sI2972
S'Cornish kilts and tartans'
p2972
sI2973
S'Carrie (1976 film)'
p2973
sI2974
S'History of the kilt'
p2974
sI2975
S'Caligae'
p2975
sI2976
S'New Zealand'
p2976
sI2977
S'Championship belt'
p2977
sI2978
S'Nubuck'
p2978
sI2979
S'Kolpik'
p2979
sI2980
S'Kashket'
p2980
sI2981
S'Bench (furniture)'
p2981
sI2982
S'East Room'
p2982
sI2983
S'Mobile dating'
p2983
sI2984
S'National Conference'
p2984
sI2985
S'Cable knitting'
p2985
sI2986
S'Category:Parliamentary procedure'
p2986
sI2987
S'Freezy Freakies'
p2987
sI2988
S'Mufti (dress)'
p2988
sI2989
S'Braccae'
p2989
sI2990
S'Waders (footwear)'
p2990
sI2991
S'Wayuu people'
p2991
sI2992
S'Magnetic boots'
p2992
sI2993
S'Shoulder pads'
p2993
sI2994
S'Teenage Dirtbag'
p2994
sI2995
S'Homa (ritual)'
p2995
sI2996
S'Persian embroidery'
p2996
sI2997
S'Le Smoking'
p2997
sI2998
S'Galway International Oyster Festival'
p2998
sI2999
S'Focale'
p2999
sI3000
S'Oven glove'
p3000
sI3001
S'Bands (neckwear)'
p3001
sI3002
S'Cougar (slang)'
p3002
sI3003
S'Tudong'
p3003
sI3004
S'Cuba'
p3004
sI3005
S'God'
p3005
sI3006
S'Canada'
p3006
sI3007
S'Sea silk'
p3007
sI3008
S'Wikipedia'
p3008
sI3009
S'Embroidery of India'
p3009
sI3010
S'Shrug (clothing)'
p3010
sI3011
S'Sweden'
p3011
sI3012
S'Denim skirt'
p3012
sI3013
S'Coat of many colors'
p3013
sI3014
S'Shalu (sari)'
p3014
sI3015
S'Lugade'
p3015
sI3016
S'Prison uniform'
p3016
sI3017
S'Romper suit'
p3017
sI3018
S'Oeko-tex standard'
p3018
sI3019
S'Neckline'
p3019
sI3020
S'Hemline'
p3020
sI3021
S'Aviator sunglasses'
p3021
sI3022
S'Zephyr cloth'
p3022
sI3023
S'Orenburg shawl'
p3023
sI3024
S'Over-illumination'
p3024
sI3025
S'1960s in Western fashion'
p3025
sI3026
S'Rickrack'
p3026
sI3027
S'Ribbing (knitting)'
p3027
sI3028
S'Ostrich leather'
p3028
sI3029
S'Sweater design'
p3029
sI3030
S'Ribbon-cutting ceremony'
p3030
sI3031
S'Odia people'
p3031
sI3032
S'Chic'
p3032
sI3033
S'Zardozi'
p3033
sI3034
S'Category:Sports clothing'
p3034
sI3035
S'Benny Gantz'
p3035
sI3036
S'Mundum Neriyathum'
p3036
sI3037
S'Asymmetric cut'
p3037
sI3038
S'Sahib Bibi Aur Ghulam'
p3038
sI3039
S'Kilt pin'
p3039
sI3040
S'Category:Birthdays'
p3040
sI3041
S'Sun protective clothing'
p3041
sI3042
S'Category:Nonverbal communication'
p3042
sI3043
S'Lifted Research Group'
p3043
sI3044
S'US standard clothing size'
p3044
sI3045
S'Gymslip'
p3045
sI3046
S'Designer clothing'
p3046
sI3047
S'Laghouat'
p3047
sI3048
S'Sanforization'
p3048
sI3049
S'Kitenge'
p3049
sI3050
S'Broadcloth'
p3050
sI3051
S'Camlet'
p3051
sI3052
S'Africa'
p3052
sI3053
S'Pongee'
p3053
sI3054
S'Scoop neck'
p3054
sI3055
S'Doppa'
p3055
sI3056
S'Gallup (company)'
p3056
sI3057
S'Kangana Ranaut'
p3057
sI3058
S'Baptismal clothing'
p3058
sI3059
S'Temple robes'
p3059
sI3060
S'Rosenmontag'
p3060
sI3061
S'Chapeau'
p3061
sI3062
S'Chaperon (headgear)'
p3062
sI3063
S'Cooling vest'
p3063
sI3064
S'Beaver hat'
p3064
sI3065
S'Etruscan jewelry'
p3065
sI3066
S'Stab vest'
p3066
sI3067
S'Zain-ul-Abidin'
p3067
sI3068
S'Armscye'
p3068
sI3069
S'Plain weave'
p3069
sI3070
S'Laticlave'
p3070
sI3071
S'1970s in Western fashion'
p3071
sI3072
S'White clothing (religious)'
p3072
sI3073
S'Sheitel'
p3073
sI3074
S'Tichel'
p3074
sI3075
S'Friendship bracelet'
p3075
sI3076
S'Knickerbockers (clothing)'
p3076
sI3077
S'Category:Clothing controversies'
p3077
sI3078
S'Basic knitted fabrics'
p3078
sI3079
S'Warp knitting'
p3079
sI3080
S'Style line'
p3080
sI3081
S'Category:2000s fashion'
p3081
sI3082
S'Kiekie (clothing)'
p3082
sI3083
S'Mother Hubbard dress'
p3083
sI3084
S'Ray-Ban Wayfarer'
p3084
sI3085
S'Wetsuit boots'
p3085
sI3086
S'The Clothes Show'
p3086
sI3087
S'Double knitting'
p3087
sI3088
S'Ringlet (haircut)'
p3088
sI3089
S'Pien Fu'
p3089
sI3090
S'American Conference'
p3090
sI3091
S'Baju Melayu'
p3091
sI3092
S'List of swimwear brands'
p3092
sI3093
S'Ihram clothing'
p3093
sI3094
S'Reference interview'
p3094
sI3095
S'Hat tax'
p3095
sI3096
S'Cut-off'
p3096
sI3097
S'Nyangatom people'
p3097
sI3098
S'Knitted fabric'
p3098
sI3099
S'Concert T-shirt'
p3099
sI3100
S'Action item'
p3100
sI3101
S'Brunswick (clothing)'
p3101
sI3102
S'Assyrian clothing'
p3102
sI3103
S'Kacchera'
p3103
sI3104
S'Kyle XY'
p3104
sI3105
S'Sprang'
p3105
sI3106
S'Benaf Dadachandji'
p3106
sI3107
S'Yurok people'
p3107
sI3108
S'Category:Suits (clothing)'
p3108
sI3109
S'Resort wear'
p3109
sI3110
S'Service dress'
p3110
sI3111
S'Category:History of clothing (Europe)'
p3111
sI3112
S'Category:History of clothing'
p3112
sI3113
S'Category:History of clothing (Western fashion)'
p3113
sI3114
S'School formal'
p3114
sI3115
S'Olefin fiber'
p3115
sI3116
S'High-top'
p3116
sI3117
S'Chuba'
p3117
sI3118
S'Queue (hairstyle)'
p3118
sI3119
S'Gamine'
p3119
sI3120
S'Miniver'
p3120
sI3121
S'Tortoiseshell'
p3121
sI3122
S'Custodian helmet'
p3122
sI3123
S'Vanity Fair (magazines)'
p3123
sI3124
S'Barkcloth'
p3124
sI3125
S'Shpitzel'
p3125
sI3126
S'Display (zoology)'
p3126
sI3127
S'Veldskoen'
p3127
sI3128
S'Missoni'
p3128
sI3129
S'Eisenhower jacket'
p3129
sI3130
S'Compression stockings'
p3130
sI3131
S'Mettupalayam, Coimbatore'
p3131
sI3132
S'Ghungroo'
p3132
sI3133
S'Birkin bag'
p3133
sI3134
S'France'
p3134
sI3135
S'Canterbury cap'
p3135
sI3136
S'Ski helmet'
p3136
sI3137
S'Wrestling singlet'
p3137
sI3138
S'Detention (imprisonment)'
p3138
sI3139
S'Mountaineering boot'
p3139
sI3140
S'Rajshahi silk'
p3140
sI3141
S'Rekel'
p3141
sI3142
S'Station wear'
p3142
sI3143
S'Green eyeshade'
p3143
sI3144
S'Silk reeling'
p3144
sI3145
S'Viyella'
p3145
sI3146
S'Pusha T'
p3146
sI3147
S'Police uniforms and equipment in the United Kingdom'
p3147
sI3148
S'Madhur Bhandarkar'
p3148
sI3149
S'Bhanu Athaiya'
p3149
sI3150
S'Natasha Poly'
p3150
sI3151
S'Christian headcovering'
p3151
sI3152
S'Bonalu'
p3152
sI3153
S'Abacost'
p3153
sI3154
S'Genital jewellery'
p3154
sI3155
S'Modern Irish Army uniform'
p3155
sI3156
S'Batiste'
p3156
sI3157
S'Organdy'
p3157
sI3158
S'See-through clothing'
p3158
sI3159
S'Boshiya'
p3159
sI3160
S'Islam'
p3160
sI3161
S'Hammer pants'
p3161
sI3162
S'Dress socks'
p3162
sI3163
S'Knee highs'
p3163
sI3164
S'Roller shoe'
p3164
sI3165
S'Festive ecology'
p3165
sI3166
S'Tsunokakushi'
p3166
sI3167
S'Caubeen'
p3167
sI3168
S'Political T-shirt'
p3168
sI3169
S'Small knot'
p3169
sI3170
S'Monique Lhuillier'
p3170
sI3171
S'Muscadin'
p3171
sI3172
S'Nantucket Reds'
p3172
sI3173
S'M-1941 Field Jacket'
p3173
sI3174
S'Moshe Feinstein'
p3174
sI3175
S'Canonical impediment'
p3175
sI3176
S'Selvage'
p3176
sI3177
S'Fascinator'
p3177
sI3178
S"Grand Duke's Official Birthday"
p3178
sI3179
S'Fibula (brooch)'
p3179
sI3180
S'Wikipedia:WikiProject Books'
p3180
sI3181
S'Robe de style'
p3181
sI3182
S'Rubber pants'
p3182
sI3183
S'Kokoshnik'
p3183
sI3184
S'Poodle skirt'
p3184
sI3185
S'Nasal helmet'
p3185
sI3186
S'Stevie Williams'
p3186
sI3187
S'Swedish goggles'
p3187
sI3188
S'Chopine'
p3188
sI3189
S'Jika-tabi'
p3189
sI3190
S'Inverness cape'
p3190
sI3191
S'Christian clothing'
p3191
sI3192
S'M98 battle uniform'
p3192
sI3193
S'Environmental impact of aviation'
p3193
sI3194
S'Priestly turban'
p3194
sI3195
S'Kat Von D'
p3195
sI3196
S'Charitable prom organizations'
p3196
sI3197
S'Karz (film)'
p3197
sI3198
S'Abarka'
p3198
sI3199
S'Wings (haircut)'
p3199
sI3200
S'Suzy Menkes'
p3200
sI3201
S'Dutch cap'
p3201
sI3202
S'Spencer (clothing)'
p3202
sI3203
S'Organic cotton'
p3203
sI3204
S'Hime cut'
p3204
sI3205
S'Chapan'
p3205
sI3206
S'Afghan clothing'
p3206
sI3207
S'Deerskin trade'
p3207
sI3208
S"Llawt'u"
p3208
sI3209
S'The Continent Makers and Other Tales of the Viagens'
p3209
sI3210
S'Galea (helmet)'
p3210
sI3211
S'Social Development Network'
p3211
sI3212
S'Salakot'
p3212
sI3213
S'Same-sex marriage in Sweden'
p3213
sI3214
S'Chokha'
p3214
sI3215
S'Uttariya'
p3215
sI3216
S'Clip-on tie'
p3216
sI3217
S'Anthony Eden hat'
p3217
sI3218
S'Shoe insert'
p3218
sI3219
S'Saddle shoe'
p3219
sI3220
S'Kalpak'
p3220
sI3221
S'Rah-rah skirt'
p3221
sI3222
S'Kasaya (clothing)'
p3222
sI3223
S'Bakya'
p3223
sI3224
S'Shendyt'
p3224
sI3225
S'Pteruges'
p3225
sI3226
S'Exit examination'
p3226
sI3227
S'Gable hood'
p3227
sI3228
S'French hood'
p3228
sI3229
S'Picot'
p3229
sI3230
S'South American fashion'
p3230
sI3231
S'Houppelande'
p3231
sI3232
S'Political houseparty'
p3232
sI3233
S'Floating canvas'
p3233
sI3234
S'Mark Wahlberg'
p3234
sI3235
S"Breakfast at Tiffany's (novella)"
p3235
sI3236
S'Liberty bodice'
p3236
sI3237
S'Slim-fit pants'
p3237
sI3238
S'Ultra sheer'
p3238
sI3239
S'Vietnamese clothing'
p3239
sI3240
S'Palla (garment)'
p3240
sI3241
S'Same-sex marriage in Uruguay'
p3241
sI3242
S'Gold-filled jewelry'
p3242
sI3243
S'Speedsuit'
p3243
sI3244
S'Updo'
p3244
sI3245
S'Neck ring'
p3245
sI3246
S'National Peanut Festival'
p3246
sI3247
S'Bluecoat'
p3247
sI3248
S'Clothing sizes'
p3248
sI3249
S'Persian clothing'
p3249
sI3250
S'Samue'
p3250
sI3251
S'Yelek'
p3251
sI3252
S'Toe cleavage'
p3252
sI3253
S'Wrap dress'
p3253
sI3254
S'Gossypium barbadense'
p3254
sI3255
S'Rose madder'
p3255
sI3256
S'Maya textiles'
p3256
sI3257
S'Annual leave'
p3257
sI3258
S'Jewellery in the Pacific'
p3258
sI3259
S'Kanga (African garment)'
p3259
sI3260
S'Nunavut'
p3260
sI3261
S'Gilet'
p3261
sI3262
S'Randoseru'
p3262
sI3263
S'Prinsjesdag'
p3263
sI3264
S'Susan Ford'
p3264
sI3265
S'Tap pants'
p3265
sI3266
S'Fiance (disambiguation)'
p3266
sI3267
S'Gandhi cap'
p3267
sI3268
S'Museum of International Folk Art'
p3268
sI3269
S'Exotic Erotic Ball'
p3269
sI3270
S'Mobile phone charm'
p3270
sI3271
S'Art jewelry'
p3271
sI3272
S'Capulana'
p3272
sI3273
S'Kemp (wool)'
p3273
sI3274
S'Nuit Blanche'
p3274
sI3275
S'It Bag'
p3275
sI3276
S'BIKE Athletic Company'
p3276
sI3277
S'Boyshorts'
p3277
sI3278
S'Pantyhose for men'
p3278
sI3279
S'Fast fashion'
p3279
sI3280
S'Tyrolean hat'
p3280
sI3281
S'Anne Klein'
p3281
sI3282
S'E. F. Bleiler'
p3282
sI3283
S'Don Ed Hardy'
p3283
sI3284
S'Hair drop'
p3284
sI3285
S'Sheikh Zayed Mosque'
p3285
sI3286
S'The 5th Wheel'
p3286
sI3287
S'Churidar'
p3287
sI3288
S'Madiba shirt'
p3288
sI3289
S'Category:Short stories by L. Sprague de Camp'
p3289
sI3290
S'Grameen check'
p3290
sI3291
S'Australian Fashion Week'
p3291
sI3292
S'Dillybag'
p3292
sI3293
S'Schott NYC'
p3293
sI3294
S'Uwa-obi'
p3294
sI3295
S'Kyahan'
p3295
sI3296
S'Sangu (armour)'
p3296
sI3297
S'Kate-bukuro'
p3297
sI3298
S'Gowri Habba'
p3298
sI3299
S'Dating coach'
p3299
sI3300
S'Peace conference'
p3300
sI3301
S'Casquette'
p3301
sI3302
S'Music festival'
p3302
sI3303
S'Derek Lam'
p3303
sI3304
S'Kuwait'
p3304
sI3305
S'Iraq'
p3305
sI3306
S'Jordan'
p3306
sI3307
S'Facebook'
p3307
sI3308
S'MA-1 bomber jacket'
p3308
sI3309
S'MA-2 bomber jacket'
p3309
sI3310
S'Philippa of England'
p3310
sI3311
S'Capotain'
p3311
sI3312
S"Pilgrim's hat"
p3312
sI3313
S'Shearling'
p3313
sI3314
S'Lingerie tape'
p3314
sI3315
S'Kirtle'
p3315
sI3316
S'Glossary of textile manufacturing'
p3316
sI3317
S'Balmoral bonnet'
p3317
sI3318
S'Field sign'
p3318
sI3319
S'Kavadi Attam'
p3319
sI3320
S'Steek'
p3320
sI3321
S'Virago sleeve'
p3321
sI3322
S'Songkok'
p3322
sI3323
S'Giorgio Oberweger'
p3323
sI3324
S'Hadagi'
p3324
sI3325
S'Uchi-bukuro'
p3325
sI3326
S'Oktoberfest'
p3326
sI3327
S'Nicolas Trigault'
p3327
sI3328
S'Cricket whites'
p3328
sI3329
S'Kubi bukuro'
p3329
sI3330
S'Designer label'
p3330
sI3331
S'Antistatic garments'
p3331
sI3332
S'Card enclosure'
p3332
sI3333
S'Brocade'
p3333
sI3334
S'Steel building'
p3334
sI3335
S'Hip and buttock padding'
p3335
sI3336
S'Full plaid'
p3336
sI3337
S'Tie pin'
p3337
sI3338
S'Bring Me the Horizon'
p3338
sI3339
S'Lord Anthony'
p3339
sI3340
S'Tokin'
p3340
sI3341
S'GI glasses'
p3341
sI3342
S'1920s in Western fashion'
p3342
sI3343
S"Greek fisherman's cap"
p3343
sI3344
S'Same-sex marriage in Mexico'
p3344
sI3345
S'Freja Beha Erichsen'
p3345
sI3346
S'Academic dress of the University of London'
p3346
sI3347
S'Bases (fashion)'
p3347
sI3348
S'Subligaculum'
p3348
sI3349
S'Quebec'
p3349
sI3350
S'Smock Parachutist DPM'
p3350
sI3351
S'List of brassiere designs'
p3351
sI3352
S'History of bras'
p3352
sI3353
S'History of fashion design'
p3353
sI3354
S'Sombrero vueltiao'
p3354
sI3355
S'Faluche'
p3355
sI3356
S'Male bra'
p3356
sI3357
S'Coppola (cap)'
p3357
sI3358
S'Bra size'
p3358
sI3359
S'Swedish Military Uniform'
p3359
sI3360
S'Cavalier hat'
p3360
sI3361
S'Islamic dress in Europe'
p3361
sI3362
S'Stroller (style)'
p3362
sI3363
S'Egypt'
p3363
sI3364
S'Leading strings'
p3364
sI3365
S'Marriages in India'
p3365
sI3366
S'Gazette du Bon Ton'
p3366
sI3367
S'Building Owners and Managers Association'
p3367
sI3368
S'Scrunchie'
p3368
sI3369
S'Wasco-Wishram'
p3369
sI3370
S'Possum-skin cloak'
p3370
sI3371
S'Lopapeysa'
p3371
sI3372
S'Pram suit'
p3372
sI3373
S'Marriage officiant'
p3373
sI3374
S'New York'
p3374
sI3375
S'Briefs'
p3375
sI3376
S'Qatar'
p3376
sI3377
S'Wiz Khalifa'
p3377
sI3378
S'History of clothing and textiles'
p3378
sI3379
S'Hockey pants'
p3379
sI3380
S'Fashion show'
p3380
sI3381
S'Girdle book'
p3381
sI3382
S'Category:1950 short stories'
p3382
sI3383
S'Peranakan beaded slippers'
p3383
sI3384
S'Bangs (hair)'
p3384
sI3385
S'African textiles'
p3385
sI3386
S'Fofudja'
p3386
sI3387
S'Exomis'
p3387
sI3388
S'Long hair'
p3388
sI3389
S'Topman'
p3389
sI3390
S'Tainia (costume)'
p3390
sI3391
S'Kerseymere'
p3391
sI3392
S'Overfrock'
p3392
sI3393
S'Rationale (clothing)'
p3393
sI3394
S'Cast-iron architecture'
p3394
sI3395
S'Armenian dress'
p3395
sI3396
S'List of festivals in Morocco'
p3396
sI3397
S'Spool heel'
p3397
sI3398
S'Swedish festivities'
p3398
sI3399
S'Uwagi'
p3399
sI3400
S'Winter solstice'
p3400
sI3401
S'Carrie (2002 film)'
p3401
sI3402
S'Cache-sexe'
p3402
sI3403
S'Boothose'
p3403
sI3404
S'American Teen'
p3404
sI3405
S'English language'
p3405
sI3406
S'Chullo'
p3406
sI3407
S'Cornette'
p3407
sI3408
S'Rick Owens'
p3408
sI3409
S'Sanbenito'
p3409
sI3410
S'Amauti'
p3410
sI3411
S'Hipster (contemporary subculture)'
p3411
sI3412
S'Kushti'
p3412
sI3413
S'Sedreh'
p3413
sI3414
S'Sports bra'
p3414
sI3415
S'Train (clothing)'
p3415
sI3416
S'Jacques Fath'
p3416
sI3417
S'Sleeve garter'
p3417
sI3418
S'Layered clothing'
p3418
sI3419
S'Nagma'
p3419
sI3420
S'Book of Love (1990 film)'
p3420
sI3421
S'Simar'
p3421
sI3422
S'Bedford cord'
p3422
sI3423
S'Justacorps'
p3423
sI3424
S'Nebraska State Historical Society'
p3424
sI3425
S'Southpole (clothing)'
p3425
sI3426
S'Mildred J. Hill'
p3426
sI3427
S'Geoffrey Gorer'
p3427
sI3428
S'Crazy Love (1987 film)'
p3428
sI3429
S'The Twelve Days of Christmas (song)'
p3429
sI3430
S'Sashtiabdhapoorthi'
p3430
sI3431
S'Paranja'
p3431
sI3432
S'Professional conference'
p3432
sI3433
S'Ajrak'
p3433
sI3434
S'Ruffle'
p3434
sI3435
S'Fly plaid'
p3435
sI3436
S'Hollister Co.'
p3436
sI3437
S'Manuel Cuevas'
p3437
sI3438
S'Burqini'
p3438
sI3439
S'Zuria'
p3439
sI3440
S'Tilfi'
p3440
sI3441
S'Luyet'
p3441
sI3442
S'Chiffon (clothing)'
p3442
sI3443
S'Jelebiya'
p3443
sI3444
S'Kidan Habesha'
p3444
sI3445
S'Medebeli'
p3445
sI3446
S'Shiraro'
p3446
sI3447
S'Kuta (clothing)'
p3447
sI3448
S'Nezela'
p3448
sI3449
S'Afro-textured hair'
p3449
sI3450
S'Jewelry design'
p3450
sI3451
S'Tsarouhi'
p3451
sI3452
S'Resist dyeing'
p3452
sI3453
S'Coutil'
p3453
sI3454
S'Kasket'
p3454
sI3455
S'Cowhide'
p3455
sI3456
S'Chinese academic dress'
p3456
sI3457
S'Oxford bags'
p3457
sI3458
S'Montefortino helmet'
p3458
sI3459
S'Coolus helmet'
p3459
sI3460
S'Imperial helmet'
p3460
sI3461
S'Hongreline'
p3461
sI3462
S'Ultrasuede'
p3462
sI3463
S'Units of textile measurement'
p3463
sI3464
S'Kesh (Sikhism)'
p3464
sI3465
S'Maroon beret'
p3465
sI3466
S'Combing'
p3466
sI3467
S'Perfecto motorcycle jacket'
p3467
sI3468
S'Boonie hat'
p3468
sI3469
S'A Date with Judy (film)'
p3469
sI3470
S'Morion (helmet)'
p3470
sI3471
S'Orlando Bloom'
p3471
sI3472
S'Sampot'
p3472
sI3473
S'Tuxedo'
p3473
sI3474
S'Spanish breeches'
p3474
sI3475
S'Ghost shirt'
p3475
sI3476
S'Culture of Assam'
p3476
sI3477
S'Fibroin'
p3477
sI3478
S'Israel'
p3478
sI3479
S'Sagum'
p3479
sI3480
S'Major professional sports leagues in the United States and Canada'
p3480
sI3481
S'Fashion capital'
p3481
sI3482
S'Greatcoat'
p3482
sI3483
S'Bib (garment)'
p3483
sI3484
S'Frieze (textile)'
p3484
sI3485
S'Proenza Schouler'
p3485
sI3486
S'Huarache (shoe)'
p3486
sI3487
S'Dhaka topi'
p3487
sI3488
S'Behnaz Sarafpour'
p3488
sI3489
S'Shirt stud'
p3489
sI3490
S'Faroese shawl'
p3490
sI3491
S'Assam silk'
p3491
sI3492
S'Belly chain'
p3492
sI3493
S'Tan beret'
p3493
sI3494
S'Kartik (month)'
p3494
sI3495
S'Runway (fashion)'
p3495
sI3496
S'Lapel pin'
p3496
sI3497
S'Stand-up meeting'
p3497
sI3498
S'Bhaad-gaaule'
p3498
sI3499
S'Anja Rubik'
p3499
sI3500
S'Stayclip'
p3500
sI3501
S'Bashlyk'
p3501
sI3502
S'University of Hawaii Press'
p3502
sI3503
S'Hobnail'
p3503
sI3504
S'Lux Style Awards'
p3504
sI3505
S'Sonu Nigam'
p3505
sI3506
S'Cork hat'
p3506
sI3507
S'Go-go boot'
p3507
sI3508
S'Passementerie'
p3508
sI3509
S'Ammunition boot'
p3509
sI3510
S'Net (textile)'
p3510
sI3511
S'Sundress'
p3511
sI3512
S'Fashion plate'
p3512
sI3513
S'Gladstone bag'
p3513
sI3514
S'Neck corset'
p3514
sI3515
S'Tomesode'
p3515
sI3516
S'Djellaba'
p3516
sI3517
S'Holdall'
p3517
sI3518
S'Giveh'
p3518
sI3519
S'List of harvest festivals'
p3519
sI3520
S'Collar stays'
p3520
sI3521
S'Krizia'
p3521
sI3522
S'1900s in Western fashion'
p3522
sI3523
S'Clutch (pin fastener)'
p3523
sI3524
S'Cheerleading uniform'
p3524
sI3525
S'Fichu'
p3525
sI3526
S'Byzantine chain'
p3526
sI3527
S'Hejazi turban'
p3527
sI3528
S'Wonder Girls'
p3528
sI3529
S'Manish Arora'
p3529
sI3530
S'Neckwear'
p3530
sI3531
S'Grosgrain'
p3531
sI3532
S'Pettipants'
p3532
sI3533
S'Category:Dresses'
p3533
sI3534
S'Vishnudharmottara Purana'
p3534
sI3535
S'Category:Hosiery'
p3535
sI3536
S'Category:Swimming equipment'
p3536
sI3537
S'Collar pin'
p3537
sI3538
S'Telogreika'
p3538
sI3539
S'Afghanka'
p3539
sI3540
S'Turnshoe'
p3540
sI3541
S'Riccardo Tisci'
p3541
sI3542
S'Smocking'
p3542
sI3543
S'Icelandic tail-cap'
p3543
sI3544
S'Council of Fashion Designers of America'
p3544
sI3545
S'Altdeutsche Tracht'
p3545
sI3546
S'Post-vacation blues'
p3546
sI3547
S'Akhara'
p3547
sI3548
S'Power dressing'
p3548
sI3549
S'Raccoon coat'
p3549
sI3550
S'Jingle dress'
p3550
sI3551
S'New York Fashion Week'
p3551
sI3552
S'Bettsometer'
p3552
sI3553
S'Buff coat'
p3553
sI3554
S'Clothing in ancient Rome'
p3554
sI3555
S'Ottavio Missoni'
p3555
sI3556
S'Blanket stitch'
p3556
sI3557
S'Category:American fashion'
p3557
sI3558
S'Category:Cultural trends'
p3558
sI3559
S'Netela'
p3559
sI3560
S'Shell jacket'
p3560
sI3561
S'Textile recycling'
p3561
sI3562
S'Category:Fashion aesthetics'
p3562
sI3563
S'Category:American clothing'
p3563
sI3564
S'Category:Mexican fashion'
p3564
sI3565
S'Category:Canadian fashion'
p3565
sI3566
S'Mechanical watch'
p3566
sI3567
S'Conference hall'
p3567
sI3568
S'Category:Office buildings'
p3568
sI3569
S'Meeting point'
p3569
sI3570
S'Nightcap (garment)'
p3570
sI3571
S'A-level'
p3571
sI3572
S'Cloche hat'
p3572
sI3573
S'Red beret'
p3573
sI3574
S'Category:Fashion terminology'
p3574
sI3575
S'Garter (stockings)'
p3575
sI3576
S'Patten (shoe)'
p3576
sI3577
S'Clothing fetish'
p3577
sI3578
S'French knickers'
p3578
sI3579
S'Clothing in the ancient world'
p3579
sI3580
S'Heather (fabric)'
p3580
sI3581
S'Shirt stays'
p3581
sI3582
S'Category:Lingerie'
p3582
sI3583
S'Net (device)'
p3583
sI3584
S'Domino mask'
p3584
sI3585
S'List of festivals in Romania'
p3585
sI3586
S'John B. Stetson Company'
p3586
sI3587
S'Malaysian cultural outfits'
p3587
sI3588
S'Gore (segment)'
p3588
sI3589
S'Ministry of Textiles (India)'
p3589
sI3590
S'Going commando'
p3590
sI3591
S'Nine West'
p3591
sI3592
S'Chupalla'
p3592
sI3593
S'Kidney belt'
p3593
sI3594
S'Manilla (money)'
p3594
sI3595
S'Galesh'
p3595
sI3596
S'Feather bonnet'
p3596
sI3597
S'Shoulder pads (fashion)'
p3597
sI3598
S'Paris Fashion Week'
p3598
sI3599
S'Jeep cap'
p3599
sI3600
S'Electric jacket'
p3600
sI3601
S'Clean Clothes Campaign'
p3601
sI3602
S'History of silk'
p3602
sI3603
S'Lacrosse glove'
p3603
sI3604
S'Fashion design'
p3604
sI3605
S'Ilkal saree'
p3605
sI3606
S'Kasuti'
p3606
sI3607
S'Gather (sewing)'
p3607
sI3608
S'Tais'
p3608
sI3609
S'Fully fashioned stockings'
p3609
sI3610
S'Fascia (sash)'
p3610
sI3611
S'Hanfu movement'
p3611
sI3612
S'Kitty Foyle (dress)'
p3612
sI3613
S'Cagoule'
p3613
sI3614
S'Definitions of whiteness in the United States'
p3614
sI3615
S'1910s in Western fashion'
p3615
sI3616
S'Armenia'
p3616
sI3617
S'Scrambled egg (uniform)'
p3617
sI3618
S'Template:Lingerie'
p3618
sI3619
S'Nemes'
p3619
sI3620
S'Unstructured interview'
p3620
sI3621
S'2(x)ist'
p3621
sI3622
S'Canadian military fur wedge cap'
p3622
sI3623
S'Template:High heels'
p3623
sI3624
S'Haversack'
p3624
sI3625
S'Beatle boot'
p3625
sI3626
S'Tangzhuang'
p3626
sI3627
S'Template:Hosiery'
p3627
sI3628
S'Hold-ups'
p3628
sI3629
S'Balinese dance'
p3629
sI3630
S'Political alliance'
p3630
sI3631
S'Dropping Out age'
p3631
sI3632
S'Abaniko'
p3632
sI3633
S'Caul (headgear)'
p3633
sI3634
S'A-line'
p3634
sI3635
S'Antique satin'
p3635
sI3636
S'Bell-boy jacket'
p3636
sI3637
S'Lightweight Rucksack'
p3637
sI3638
S'Button blanket'
p3638
sI3639
S'Cleat (shoe)'
p3639
sI3640
S'Diabetic sock'
p3640
sI3641
S'Maithuna'
p3641
sI3642
S'Ballerina neckline'
p3642
sI3643
S'Bar tack'
p3643
sI3644
S"April Fools' Day"
p3644
sI3645
S'Turkey'
p3645
sI3646
S'Mancation'
p3646
sI3647
S'Camp shirt'
p3647
sI3648
S'Boat neck'
p3648
sI3649
S'Phra Kiao'
p3649
sI3650
S'Band collar'
p3650
sI3651
S'Ballet flat'
p3651
sI3652
S'Bell-boy hat'
p3652
sI3653
S'Royal Air Force uniform'
p3653
sI3654
S'Shetland sheep'
p3654
sI3655
S'Bed jacket'
p3655
sI3656
S'Bandeau'
p3656
sI3657
S'Bell sleeve'
p3657
sI3658
S'Cavalier boots'
p3658
sI3659
S'Name tag'
p3659
sI3660
S'Mock interview'
p3660
sI3661
S"Nurse's cap"
p3661
sI3662
S"Men's skirts"
p3662
sI3663
S'Sweater vest'
p3663
sI3664
S'Coco Chanel'
p3664
sI3665
S'The Philosophy of Andy Warhol'
p3665
sI3666
S'Kikoi'
p3666
sI3667
S'Tally (cap)'
p3667
sI3668
S'Mekhela chador'
p3668
sI3669
S'Foulard'
p3669
sI3670
S'Aztec clothing'
p3670
sI3671
S"Dance 'til Dawn"
p3671
sI3672
S'Charmeuse'
p3672
sI3673
S'Chinese clothing'
p3673
sI3674
S'Adam and Eve'
p3674
sI3675
S'Phoebe Philo'
p3675
sI3676
S'Hair jewellery'
p3676
sI3677
S'Lehenga'
p3677
sI3678
S'Jaapi'
p3678
sI3679
S'Gamosa'
p3679
sI3680
S'Category:High schools and secondary schools'
p3680
sI3681
S'Police duty belt'
p3681
sI3682
S'Back closure'
p3682
sI3683
S'Grass skirt'
p3683
sI3684
S'Sylvia Ann Hewlett'
p3684
sI3685
S'Category:Dating'
p3685
sI3686
S'Category:Graduation'
p3686
sI3687
S'Kota Doria'
p3687
sI3688
S'Rakusu'
p3688
sI3689
S'Category:Night'
p3689
sI3690
S'Itawamba County School District'
p3690
sI3691
S'Ulster coat'
p3691
sI3692
S'Conservation and restoration of textiles'
p3692
sI3693
S'Polity (publisher)'
p3693
sI3694
S'Viagens Interplanetarias'
p3694
sI3695
S'Carpenter jeans'
p3695
sI3696
S'Stuff.co.nz'
p3696
sI3697
S'Mintel'
p3697
sI3698
S'Rondel (armour)'
p3698
sI3699
S'Dandan Oilik'
p3699
sI3700
S'Self-service laundry'
p3700
sI3701
S'Lusekofte'
p3701
sI3702
S'AXA Equitable Life Insurance Company'
p3702
sI3703
S'Foundation (cosmetics)'
p3703
sI3704
S'Morocco leather'
p3704
sI3705
S'Australian Aboriginal fibrecraft'
p3705
sI3706
S'Namba (clothing)'
p3706
sI3707
S'Surtout'
p3707
sI3708
S'Dominica'
p3708
sI3709
S'Prom Night (2008 film)'
p3709
sI3710
S'Arkhalig'
p3710
sI3711
S'Smoking age'
p3711
sI3712
S"Baro't saya"
p3712
sI3713
S'Red Sea rig'
p3713
sI3714
S'Mad Men'
p3714
sI3715
S'Beizi'
p3715
sI3716
S'Backless dress'
p3716
sI3717
S'Johnny Cash'
p3717
sI3718
S"Taki's Magazine"
p3718
sI3719
S'Buka cloak'
p3719
sI3720
S'Featherstitch'
p3720
sI3721
S'Bunny boots'
p3721
sI3722
S'Beca (garment)'
p3722
sI3723
S'Isabel Toledo'
p3723
sI3724
S'Teen dating violence'
p3724
sI3725
S'Zierscheibe'
p3725
sI3726
S'Paenula'
p3726
sI3727
S'Khata'
p3727
sI3728
S'Farshi Pajama'
p3728
sI3729
S'Hair tie'
p3729
sI3730
S'Webbed belt'
p3730
sI3731
S'Fly (clothing)'
p3731
sI3732
S'Bustle (regalia)'
p3732
sI3733
S'Royal Navy uniform'
p3733
sI3734
S'Made to measure'
p3734
sI3735
S'Lara Stone'
p3735
sI3736
S'Calfskin'
p3736
sI3737
S'Running shorts'
p3737
sI3738
S'Basque (clothing)'
p3738
sI3739
S'Bathukamma'
p3739
sI3740
S'Khmer clothing'
p3740
sI3741
S'Walk shorts'
p3741
sI3742
S'Trashion'
p3742
sI3743
S'Sun hat'
p3743
sI3744
S'Middle English Dictionary'
p3744
sI3745
S'Zibellino'
p3745
sI3746
S'Bahag (garment)'
p3746
sI3747
S'M42 jacket'
p3747
sI3748
S'Paludamentum'
p3748
sI3749
S'Sustainable fashion'
p3749
sI3750
S'Anglo-Saxon dress'
p3750
sI3751
S'Jennifer Lawrence'
p3751
sI3752
S'Early medieval European dress'
p3752
sI3753
S'Bench shirt'
p3753
sI3754
S'Romanian dress'
p3754
sI3755
S'Home (sports)'
p3755
sI3756
S'Pompadour (hairstyle)'
p3756
sI3757
S'Shower cap'
p3757
sI3758
S'Sirwal'
p3758
sI3759
S'Sheath dress'
p3759
sI3760
S'Coconut jewelry'
p3760
sI3761
S'Baby bumper headguard cap'
p3761
sI3762
S'Harald Martenstein'
p3762
sI3763
S'Heated clothing'
p3763
sI3764
S'Independence Day (Pakistan)'
p3764
sI3765
S'Cosmetics in the 1920s'
p3765
sI3766
S'Women and trousers'
p3766
sI3767
S'La Senza'
p3767
sI3768
S'Clothing in Mauritius'
p3768
sI3769
S'Aiguillette (ornament)'
p3769
sI3770
S'Pileus (hat)'
p3770
sI3771
S'Metal corset'
p3771
sI3772
S'Shashthi (day)'
p3772
sI3773
S'Sheer fabric'
p3773
sI3774
S'G-1 military flight jacket'
p3774
sI3775
S'Yi mein'
p3775
sI3776
S'Water polo cap'
p3776
sI3777
S'Cleavage enhancement'
p3777
sI3778
S'Redfern (couture)'
p3778
sI3779
S'Tang official headwear'
p3779
sI3780
S'Song official headwear'
p3780
sI3781
S'Pile (textile)'
p3781
sI3782
S'Juvenile Protective Association'
p3782
sI3783
S'Sleeved blanket'
p3783
sI3784
S'Batting glove'
p3784
sI3785
S'Breeching (boys)'
p3785
sI3786
S'Deel (clothing)'
p3786
sI3787
S'Dolphin shorts'
p3787
sI3788
S'Scissors-glasses'
p3788
sI3789
S'Organic clothing'
p3789
sI3790
S'Shot silk'
p3790
sI3791
S'Aso Oke hat'
p3791
sI3792
S'Aso Oke fabric'
p3792
sI3793
S'Mojari'
p3793
sI3794
S'Category:Italian fashion'
p3794
sI3795
S'Category:Indian fashion'
p3795
sI3796
S'Type 07'
p3796
sI3797
S'Bra'
p3797
sI3798
S'Satlada'
p3798
sI3799
S'Choora'
p3799
sI3800
S'Breathability'
p3800
sI3801
S'Malaysian batik'
p3801
sI3802
S'India Fashion Week'
p3802
sI3803
S'Training bra'
p3803
sI3804
S'Senegalese kaftan'
p3804
sI3805
S'Car'
p3805
sI3806
S'Gache'
p3806
sI3807
S'Gregory Lekhtman'
p3807
sI3808
S'Mess jacket'
p3808
sI3809
S"Playsuit (children's clothing)"
p3809
sI3810
S'Playsuit (lingerie)'
p3810
sI3811
S'Gilly Hicks'
p3811
sI3812
S'Megan Young'
p3812
sI3813
S'Tantour'
p3813
sI3814
S'Slingback'
p3814
sI3815
S'Bangladesh textile industry'
p3815
sI3816
S'Hair straightening'
p3816
sI3817
S'Tulle bi telli'
p3817
sI3818
S'Philippine Debut'
p3818
sI3819
S'Jumpsoles'
p3819
sI3820
S'Bonnie Cashin'
p3820
sI3821
S'Monkey Day'
p3821
sI3822
S'Vera Maxwell'
p3822
sI3823
S'Kickoff meeting'
p3823
sI3824
S'Karvalakki'
p3824
sI3825
S'Locking clothing'
p3825
sI3826
S'Galloon'
p3826
sI3827
S'Fringe (trim)'
p3827
sI3828
S'Doljanchi'
p3828
sI3829
S'Langa Voni'
p3829
sI3830
S'Gagra choli'
p3830
sI3831
S'Browline glasses'
p3831
sI3832
S'Category:Social events'
p3832
sI3833
S'Saber arch'
p3833
sI3834
S'Obi-ita'
p3834
sI3835
S'Calvin Klein'
p3835
sI3836
S'Pendilia'
p3836
sI3837
S'E-textiles'
p3837
sI3838
S'Western Odisha'
p3838
sI3839
S'Kourtney Kardashian'
p3839
sI3840
S'Boeotian helmet'
p3840
sI3841
S'Twilight (2008 film)'
p3841
sI3842
S'Death anniversary'
p3842
sI3843
S'Plain dress'
p3843
sI3844
S'Holy Cross Catholic Secondary School (St. Catharines)'
p3844
sI3845
S'Woodblock printing on textiles'
p3845
sI3846
S'Tengura'
p3846
sI3847
S'Roller printing on textiles'
p3847
sI3848
S'Parent-teacher interview'
p3848
sI3849
S'Soutache'
p3849
sI3850
S'Bead crochet'
p3850
sI3851
S'Wreath (attire)'
p3851
sI3852
S'Salim Al-Hassani'
p3852
sI3853
S'Ghillies (dance)'
p3853
sI3854
S'Granny square'
p3854
sI3855
S'Hounskull'
p3855
sI3856
S'Social impact of thong underwear'
p3856
sI3857
S'Patrol cap'
p3857
sI3858
S'Utility cover'
p3858
sI3859
S'Ukrainian wreath'
p3859
sI3860
S'All over print'
p3860
sI3861
S'Cut and sew'
p3861
sI3862
S'Travel pack'
p3862
sI3863
S'Mall-intercept personal interview'
p3863
sI3864
S'Cricket cap'
p3864
sI3865
S'Type 97 Service Dress'
p3865
sI3866
S'Kasta sari'
p3866
sI3867
S'Crochet thread'
p3867
sI3868
S'Top (clothing)'
p3868
sI3869
S'Tent dress'
p3869
sI3870
S'List of crochet stitches'
p3870
sI3871
S'Category:Dance equipment'
p3871
sI3872
S'Wehrmacht uniforms'
p3872
sI3873
S'Shisha (embroidery)'
p3873
sI3874
S'List of yarns for crochet and knitting'
p3874
sI3875
S'Water shoe'
p3875
sI3876
S'Plastic clothing'
p3876
sI3877
S'Ukrainian embroidery'
p3877
sI3878
S'Case interview'
p3878
sI3879
S'American pioneer'
p3879
sI3880
S'Alpaca fiber'
p3880
sI3881
S'Pontifical vestments'
p3881
sI3882
S'Baggies (clothing)'
p3882
sI3883
S'Shell stitch'
p3883
sI3884
S'Steven and Chris'
p3884
sI3885
S'Caulk boots'
p3885
sI3886
S'Napa leather'
p3886
sI3887
S'Category:Fashion accessories'
p3887
sI3888
S'Fashion in the United States'
p3888
sI3889
S'Palestinian costumes'
p3889
sI3890
S'Western cosmetics in the 1970s'
p3890
sI3891
S'Hand knitting'
p3891
sI3892
S'Daniel Craig'
p3892
sI3893
S'Harem pants'
p3893
sI3894
S'Phillip Lim'
p3894
sI3895
S'The Best Science Fiction Stories: 1951'
p3895
sI3896
S'Compression garment'
p3896
sI3897
S'Trench boot'
p3897
sI3898
S'Nakshi kantha'
p3898
sI3899
S'Current Biology'
p3899
sI3900
S'Lanvin (company)'
p3900
sI3901
S'Shirring'
p3901
sI3902
S'Scrum cap'
p3902
sI3903
S'Fashion (2008 film)'
p3903
sI3904
S'Textiles of Oaxaca'
p3904
sI3905
S'Venetian-style shoe'
p3905
sI3906
S'Prom Wars'
p3906
sI3907
S'Inuit'
p3907
sI3908
S'The Millionaire Matchmaker'
p3908
sI3909
S'Ochipok'
p3909
sI3910
S'Group dating'
p3910
sI3911
S'Cognitive interview'
p3911
sI3912
S'Kozhukh'
p3912
sI3913
S'Kozhushanka'
p3913
sI3914
S'Man'
p3914
sI3915
S'Yatra'
p3915
sI3916
S'Calgary'
p3916
sI3917
S'Priestly robe (Judaism)'
p3917
sI3918
S'Bling-bling'
p3918
sI3919
S'Priestly undergarments'
p3919
sI3920
S'Priestly tunic'
p3920
sI3921
S'Priestly sash'
p3921
sI3922
S'Hook-and-eye closure'
p3922
sI3923
S'Baja jacket'
p3923
sI3924
S'Approach shoe'
p3924
sI3925
S'Fontange'
p3925
sI3926
S'Illyrian type helmet'
p3926
sI3927
S'Shmarjet'
p3927
sI3928
S'Kegelhelm'
p3928
sI3929
S'Hair stick'
p3929
sI3930
S'Reimiro'
p3930
sI3931
S'John R. Jewitt'
p3931
sI3932
S'Diaper bag'
p3932
sI3933
S'Sokutai'
p3933
sI3934
S'Kariba suit'
p3934
sI3935
S'Monterrey Institute of Technology and Higher Education, Mexico City'
p3935
sI3936
S'Shirtdress'
p3936
sI3937
S'Karlie Kloss'
p3937
sI3938
S'Same-sex marriage in Norway'
p3938
sI3939
S"Template:Men's undergarments"
p3939
sI3940
S'Style tribe'
p3940
sI3941
S'Sports visor'
p3941
sI3942
S'90210 (TV series)'
p3942
sI3943
S'Ageing'
p3943
sI3944
S'Modern dress'
p3944
sI3945
S'Dostana (2008 film)'
p3945
sI3946
S'Category:American Old West'
p3946
sI3947
S'Nostalgia Night'
p3947
sI3948
S'Pakistan Day'
p3948
sI3949
S'Buyer (fashion)'
p3949
sI3950
S'Muff (handwarmer)'
p3950
sI3951
S'Hnyat-phanat'
p3951
sI3952
S'Gaung baung'
p3952
sI3953
S'Jussishirt'
p3953
sI3954
S'Koukoulion'
p3954
sI3955
S'Lee Cooper'
p3955
sI3956
S'Jabot (neckwear)'
p3956
sI3957
S'Brazilian jiu-jitsu gi'
p3957
sI3958
S"Printer's hat"
p3958
sI3959
S'Skullcandy'
p3959
sI3960
S'Corolla (chaplet)'
p3960
sI3961
S'Shutter Shades'
p3961
sI3962
S'Maternity clothing'
p3962
sI3963
S'Icelandic national costume'
p3963
sI3964
S'Sharkskin'
p3964
sI3965
S'Symphony for Organ No. 5 (Widor)'
p3965
sI3966
S'Attic helmet'
p3966
sI3967
S'Divorce party'
p3967
sI3968
S'Tyga'
p3968
sI3969
S'Amice'
p3969
sI3970
S'Chukka boot'
p3970
sI3971
S'Shank (footwear)'
p3971
sI3972
S'Ottoman (textile)'
p3972
sI3973
S'Gamucha'
p3973
sI3974
S'Close helmet'
p3974
sI3975
S'Saltwater sandals'
p3975
sI3976
S'Friendship'
p3976
sI3977
S'Religious clothing'
p3977
sI3978
S'Birrus'
p3978
sI3979
S'Kofia (hat)'
p3979
sI3980
S'Gharara'
p3980
sI3981
S'Baseball uniform'
p3981
sI3982
S'Djibouti'
p3982
sI3983
S'Corner office'
p3983
sI3984
S'Guatemala'
p3984
sI3985
S'Eritrea'
p3985
sI3986
S'Faroe Islands'
p3986
sI3987
S'Guyana'
p3987
sI3988
S'Abercrombie & Fitch'
p3988
sI3989
S'Lika cap'
p3989
sI3990
S'Valenciennes lace'
p3990
sI3991
S'Mechlin lace'
p3991
sI3992
S'List of Sindhi festivals'
p3992
sI3993
S'Coin purse'
p3993
sI3994
S'Brussels lace'
p3994
sI3995
S'Ripstop'
p3995
sI3996
S'Rohit Khosla'
p3996
sI3997
S'Kipper tie'
p3997
sI3998
S'South Africa'
p3998
sI3999
S'Naga shawl'
p3999
sI4000
S'Riha (garment)'
p4000
sI4001
S'Blonde lace'
p4001
sI4002
S'Uniforms of the Singapore Police Force'
p4002
sI4003
S'Alasho'
p4003
sI4004
S'Rayadillo'
p4004
sI4005
S'Pin stripes'
p4005
sI4006
S'Langota'
p4006
sI4007
S'Bucks point lace'
p4007
sI4008
S'Samite'
p4008
sI4009
S'Torchon lace'
p4009
sI4010
S'Nap (textile)'
p4010
sI4011
S'Binche lace'
p4011
sI4012
S'Garibaldi shirt'
p4012
sI4013
S'Kartik Poornima'
p4013
sI4014
S'Taranga (clothing)'
p4014
sI4015
S'Splittertarnmuster'
p4015
sI4016
S'Berlin Iron Jewellery'
p4016
sI4017
S'Myeonje baegab'
p4017
sI4018
S'Alice in Wonderland dress'
p4018
sI4019
S'Lady Gaga'
p4019
sI4020
S'Khaki drill'
p4020
sI4021
S'Liqui liqui'
p4021
sI4022
S'Pakistani clothing'
p4022
sI4023
S'Traditional Albanian clothing'
p4023
sI4024
S'Birthstone'
p4024
sI4025
S'Flogger (fashion)'
p4025
sI4026
S'Gate crashing'
p4026
sI4027
S'Bart Got a Room'
p4027
sI4028
S'Cat eye glasses'
p4028
sI4029
S'Revers'
p4029
sI4030
S'Ghoonghat'
p4030
sI4031
S'File:NewBritainUnderwearWashingDirections.jpg'
p4031
sI4032
S'Mitznefet (Israeli military)'
p4032
sI4033
S'Piping (sewing)'
p4033
sI4034
S'Category:National costume'
p4034
sI4035
S'Cruise collection'
p4035
sI4036
S'Indonesian National Police'
p4036
sI4037
S'Shilpa Shetty'
p4037
sI4038
S'Isiagu'
p4038
sI4039
S'Christian'
p4039
sI4040
S'Ball dress'
p4040
sI4041
S'John Rambo'
p4041
sI4042
S'Taqiyah (cap)'
p4042
sI4043
S'Tsujigahana'
p4043
sI4044
S'Tapis (Philippine clothing)'
p4044
sI4045
S'Harvard University'
p4045
sI4046
S'Laura Dundovic'
p4046
sI4047
S'Garot'
p4047
sI4048
S'Maya civilization'
p4048
sI4049
S'Doctoral hat'
p4049
sI4050
S'Capirote'
p4050
sI4051
S'Milan Fashion Week'
p4051
sI4052
S'Countries of the United Kingdom'
p4052
sI4053
S'Mysore Peta'
p4053
sI4054
S'Architectonic jewellery'
p4054
sI4055
S'Transport'
p4055
sI4056
S'Target Corporation'
p4056
sI4057
S'Alpaca'
p4057
sI4058
S'Stackhat'
p4058
sI4059
S'Seaweed'
p4059
sI4060
S'Vyshyvanka'
p4060
sI4061
S'Beijing'
p4061
sI4062
S'Category:Transport culture'
p4062
sI4063
S'Population Action International'
p4063
sI4064
S'Beaux Arts Ball'
p4064
sI4065
S'Ganse cord'
p4065
sI4066
S'Workshop (disambiguation)'
p4066
sI4067
S'Sack-back gown'
p4067
sI4068
S'Mauritania'
p4068
sI4069
S'Tote bag'
p4069
sI4070
S'Ethiopian suit'
p4070
sI4071
S'Habesha kemis'
p4071
sI4072
S'Comparison of online dating websites'
p4072
sI4073
S'Finishing (textiles)'
p4073
sI4074
S'SO36'
p4074
sI4075
S'Nudity'
p4075
sI4076
S'Toupha'
p4076
sI4077
S'Bahrain'
p4077
sI4078
S'Abkhazia'
p4078
sI4079
S'Hip hop music'
p4079
sI4080
S'Afrikaners'
p4080
sI4081
S'Berlin International Film Festival'
p4081
sI4082
S'Abu Dhabi'
p4082
sI4083
S'Brand'
p4083
sI4084
S'Alumnus'
p4084
sI4085
S'American football'
p4085
sI4086
S'Argentina'
p4086
sI4087
S'Cape Verde'
p4087
sI4088
S'Charge of the Light Brigade'
p4088
sI4089
S'Nuakhai'
p4089
sI4090
S'Sock'
p4090
sI4091
S'Pixie cut'
p4091
sI4092
S'Reuters'
p4092
sI4093
S'Nike, Inc.'
p4093
sI4094
S'Wikipedia:Spam'
p4094
sI4095
S'Fur'
p4095
sI4096
S'Seaboot'
p4096
sI4097
S'Tribal Gear'
p4097
sI4098
S'Adjustable-focus eyeglasses'
p4098
sI4099
S'T-skirt'
p4099
sI4100
S'Singles event'
p4100
sI4101
S'Scrubs (clothing)'
p4101
sI4102
S'Tau robe'
p4102
sI4103
S'Trousers'
p4103
sI4104
S'Labor Day'
p4104
sI4105
S'Seoul'
p4105
sI4106
S'East Timor'
p4106
sI4107
S'George W. Crane'
p4107
sI4108
S'History of suits'
p4108
sI4109
S'Beoseon'
p4109
sI4110
S'Abdullah of Saudi Arabia'
p4110
sI4111
S'Gossip Girl'
p4111
sI4112
S'Polytheism'
p4112
sI4113
S'Gymnastyorka'
p4113
sI4114
S'Peter Jackson'
p4114
sI4115
S'Derby shoe'
p4115
sI4116
S'Great Depression'
p4116
sI4117
S'Age disparity in sexual relationships'
p4117
sI4118
S'Swim diaper'
p4118
sI4119
S'Vishnu'
p4119
sI4120
S'Swim briefs'
p4120
sI4121
S'The Guardian'
p4121
sI4122
S'BBC'
p4122
sI4123
S'Ayam (cap)'
p4123
sI4124
S'Amish'
p4124
sI4125
S'Jokduri'
p4125
sI4126
S'Greek Army uniforms'
p4126
sI4127
S'Elevator'
p4127
sI4128
S'Ganesha'
p4128
sI4129
S'Rama'
p4129
sI4130
S'Chesterfield coat'
p4130
sI4131
S'Hwagwan'
p4131
sI4132
S'Hwarot'
p4132
sI4133
S'Gulle'
p4133
sI4134
S'Fujin (Headgear)'
p4134
sI4135
S'Tanggeon'
p4135
sI4136
S'Monk shoe'
p4136
sI4137
S'Jobawi'
p4137
sI4138
S'Nambawi'
p4138
sI4139
S'Pungcha'
p4139
sI4140
S'Imperial yellow jacket'
p4140
sI4141
S'Geumbak'
p4141
sI4142
S'Gwanbok'
p4142
sI4143
S'Beonggeoji'
p4143
sI4144
S'Hogeon'
p4144
sI4145
S'Television program'
p4145
sI4146
S'Sagyusam'
p4146
sI4147
S'Saekdongot'
p4147
sI4148
S'Jeogori'
p4148
sI4149
S'Po (clothing)'
p4149
sI4150
S'Jeonbok'
p4150
sI4151
S'Dopo (clothing)'
p4151
sI4152
S'Durumagi'
p4152
sI4153
S'Kkachi durumagi'
p4153
sI4154
S'Ode to Joy'
p4154
sI4155
S'Rosh Hashanah'
p4155
sI4156
S'Republic of the Congo'
p4156
sI4157
S'East Asia'
p4157
sI4158
S'Same-sex marriage in Spain'
p4158
sI4159
S'Hwa'
p4159
sI4160
S'Daenggi'
p4160
sI4161
S'Chinese New Year'
p4161
sI4162
S'Lotus shoes'
p4162
sI4163
S'Mixed martial arts clothing'
p4163
sI4164
S'Kim Il-sung'
p4164
sI4165
S'Jersey (fabric)'
p4165
sI4166
S'Uniforms of the Confederate States military forces'
p4166
sI4167
S'Pointinini'
p4167
sI4168
S'Dress boot'
p4168
sI4169
S'Jipsin'
p4169
sI4170
S'Anti-fashion'
p4170
sI4171
S'The Betrothed'
p4171
sI4172
S'Coat pocket'
p4172
sI4173
S'Inverness coat'
p4173
sI4174
S"Sean O'Pry"
p4174
sI4175
S'Olympic Games ceremony'
p4175
sI4176
S'Jodhpur boot'
p4176
sI4177
S'Tie chain'
p4177
sI4178
S'Mystery Date (game)'
p4178
sI4179
S'Dangui'
p4179
sI4180
S'Dutch language'
p4180
sI4181
S'Mohra (necklace)'
p4181
sI4182
S'Magoja'
p4182
sI4183
S'Barathea'
p4183
sI4184
S'British Fashion Council'
p4184
sI4185
S'Kerala sari'
p4185
sI4186
S'Jump smock'
p4186
sI4187
S'Chalcidian helmet'
p4187
sI4188
S'Glamour (presentation)'
p4188
sI4189
S'David Gandy'
p4189
sI4190
S'Takchita'
p4190
sI4191
S'Purse hook'
p4191
sI4192
S'Manila shawl'
p4192
sI4193
S'Glen plaid'
p4193
sI4194
S'Herringbone (cloth)'
p4194
sI4195
S'Blangkon'
p4195
sI4196
S'Chemise cagoule'
p4196
sI4197
S'Basque Country (autonomous community)'
p4197
sI4198
S'Neil Selkirk'
p4198
sI4199
S'Trapper (ice hockey)'
p4199
sI4200
S'Consumer Product Safety Improvement Act'
p4200
sI4201
S'American Samoa'
p4201
sI4202
S'New Guinea'
p4202
sI4203
S'Indian subcontinent'
p4203
sI4204
S'Velcro'
p4204
sI4205
S'Brahma'
p4205
sI4206
S'International Talk Like a Pirate Day'
p4206
sI4207
S'Paduka'
p4207
sI4208
S'Korean birthday celebrations'
p4208
sI4209
S'Toms Shoes'
p4209
sI4210
S'Pancha Ganapati'
p4210
sI4211
S'If You Are the One'
p4211
sI4212
S'Category:Balls (dance)'
p4212
sI4213
S'Project Runway Canada (season 1)'
p4213
sI4214
S'Malaysian school uniform'
p4214
sI4215
S'Bowling shirt'
p4215
sI4216
S'Princess seams'
p4216
sI4217
S'Grenadine (cloth)'
p4217
sI4218
S'Category:Interviews'
p4218
sI4219
S'Economic liberalisation in India'
p4219
sI4220
S'Psychiatric interview'
p4220
sI4221
S'Dart (sewing)'
p4221
sI4222
S'Miss March'
p4222
sI4223
S'Hemline index'
p4223
sI4224
S'Bikini variants'
p4224
sI4225
S'List of balls in Vienna'
p4225
sI4226
S'Dance party'
p4226
sI4227
S'Wardrobe (clothing)'
p4227
sI4228
S'Category:Hinduism-related lists'
p4228
sI4229
S'Commonwealth of Nations'
p4229
sI4230
S'Dolly Varden (costume)'
p4230
sI4231
S'Art history'
p4231
sI4232
S'Western world'
p4232
sI4233
S'Western culture'
p4233
sI4234
S'Ghanaian smock'
p4234
sI4235
S'Starter Clothing Line'
p4235
sI4236
S'Timeline of non-sexual social nudity'
p4236
sI4237
S'Australia Day'
p4237
sI4238
S'Sri Ram Sena'
p4238
sI4239
S'Wild silk'
p4239
sI4240
S'Japanese armour'
p4240
sI4241
S'Haute couture'
p4241
sI4242
S'Clothing in ancient Greece'
p4242
sI4243
S'Kolpos'
p4243
sI4244
S'Eri silk'
p4244
sI4245
S'Chinese zodiac'
p4245
sI4246
S'Stump sock'
p4246
sI4247
S'Journal of Occupational and Environmental Medicine'
p4247
sI4248
S'Dress of the Year'
p4248
sI4249
S'Ironing'
p4249
sI4250
S'History of the bikini'
p4250
sI4251
S'Haapsalu shawl'
p4251
sI4252
S'Peter Paul Rubens'
p4252
sI4253
S'Oriental Orthodoxy'
p4253
sI4254
S'Thong (clothing)'
p4254
sI4255
S'Panty line'
p4255
sI4256
S'Amelia Bloomer'
p4256
sI4257
S'Giuseppe Garibaldi'
p4257
sI4258
S'Burundi'
p4258
sI4259
S'Shakti'
p4259
sI4260
S'James Laver'
p4260
sI4261
S'Wedding sari'
p4261
sI4262
S'Template:Footwear'
p4262
sI4263
S'Pink Chaddi Campaign'
p4263
sI4264
S'Wonsam'
p4264
sI4265
S'Stripweave'
p4265
sI4266
S'Elle (magazine)'
p4266
sI4267
S'Film'
p4267
sI4268
S'Geodeulji'
p4268
sI4269
S'South Asia'
p4269
sI4270
S"Boar's tusk helmet"
p4270
sI4271
S'Hijab by country'
p4271
sI4272
S'Chima (clothing)'
p4272
sI4273
S'Fashion Net'
p4273
sI4274
S'The Awesome 80s Prom'
p4274
sI4275
S'List of Korean clothing'
p4275
sI4276
S'Monkey jacket'
p4276
sI4277
S'Grandfather shirt'
p4277
sI4278
S'Waves (hairstyle)'
p4278
sI4279
S'The Combination (film)'
p4279
sI4280
S'Gomusin'
p4280
sI4281
S'Scene (subculture)'
p4281
sI4282
S'Elizabeth Hawes'
p4282
sI4283
S'Bangladeshi RMG Sector'
p4283
sI4284
S'Dorothy Shaver'
p4284
sI4285
S'Clare Potter'
p4285
sI4286
S'Richard Martin (curator)'
p4286
sI4287
S'Indiana'
p4287
sI4288
S'Mary Ping'
p4288
sI4289
S'Zoster (costume)'
p4289
sI4290
S'Clothing material'
p4290
sI4291
S'Jewish religious clothing'
p4291
sI4292
S'Neiman Marcus Fashion Award'
p4292
sI4293
S'Obi (martial arts)'
p4293
sI4294
S'Henna'
p4294
sI4295
S'Mantle (clothing)'
p4295
sI4296
S'Usekh collar'
p4296
sI4297
S'Cappello Alpino'
p4297
sI4298
S'MS Skania'
p4298
sI4299
S'Boat shoe'
p4299
sI4300
S'Vent (tailoring)'
p4300
sI4301
S'T-bar sandal'
p4301
sI4302
S'Bunny slippers'
p4302
sI4303
S"Victoria's Secret"
p4303
sI4304
S'Ribbon work'
p4304
sI4305
S'Wedding planner'
p4305
sI4306
S'Underwire bra'
p4306
sI4307
S'English medieval clothing'
p4307
sI4308
S'Haferlschuh'
p4308
sI4309
S'Boss of the Plains'
p4309
sI4310
S'List of Hanfu'
p4310
sI4311
S'Ruqun'
p4311
sI4312
S'Zhiduo (clothing)'
p4312
sI4313
S"Chang'ao"
p4313
sI4314
S'Banbi'
p4314
sI4315
S'Yuanlingshan'
p4315
sI4316
S'Daopao'
p4316
sI4317
S'Panling Lanshan'
p4317
sI4318
S'Shenyi'
p4318
sI4319
S'Fengguan'
p4319
sI4320
S'Kosa silk'
p4320
sI4321
S'Hemp jewelry'
p4321
sI4322
S'Loden cape'
p4322
sI4323
S'Diyi'
p4323
sI4324
S'Kaupinam'
p4324
sI4325
S'Kosode'
p4325
sI4326
S'Capsule wardrobe'
p4326
sI4327
S'Pill (textile)'
p4327
sI4328
S'Hanuman temple, Salangpur'
p4328
sI4329
S'Corset controversy'
p4329
sI4330
S'Formal trousers'
p4330
sI4331
S'Montera picona'
p4331
sI4332
S'Makarapa'
p4332
sI4333
S'Valley Girls'
p4333
sI4334
S'Vibram FiveFingers'
p4334
sI4335
S'Printed T-shirt'
p4335
sI4336
S'List of festivals in Nepal'
p4336
sI4337
S'Calf (leg)'
p4337
sI4338
S'Category:Types of travel'
p4338
sI4339
S'Akihito'
p4339
sI4340
S'M-1951 field jacket'
p4340
sI4341
S'Gregorian calendar'
p4341
sI4342
S'Kanzu'
p4342
sI4343
S'Lutheranism'
p4343
sI4344
S'Gomesi'
p4344
sI4345
S'Punjab, India'
p4345
sI4346
S'European Australians'
p4346
sI4347
S'Beetlewing'
p4347
sI4348
S'Pectoral (Ancient Egypt)'
p4348
sI4349
S'Liu Wen'
p4349
sI4350
S'Hajj'
p4350
sI4351
S'Mounteere Cap'
p4351
sI4352
S'List of festivals in Costa Rica'
p4352
sI4353
S'Moire (fabric)'
p4353
sI4354
S'Republic of Macedonia'
p4354
sI4355
S'Quadrille dress'
p4355
sI4356
S'Dree Festival'
p4356
sI4357
S'Braiding machine'
p4357
sI4358
S'Justin Bieber'
p4358
sI4359
S'Sharovary'
p4359
sI4360
S'Nordic countries'
p4360
sI4361
S'Old school (tattoo)'
p4361
sI4362
S'Kolhapuri chappal'
p4362
sI4363
S'Wearable technology'
p4363
sI4364
S'Hangaroc'
p4364
sI4365
S'The Daily Telegraph'
p4365
sI4366
S'Konos (helmet)'
p4366
sI4367
S'Carbon-fiber-reinforced polymer'
p4367
sI4368
S'Clothing technology'
p4368
sI4369
S'Cocktail hat'
p4369
sI4370
S'Chap boot'
p4370
sI4371
S'Fruit hat'
p4371
sI4372
S'Techno'
p4372
sI4373
S'Onnara'
p4373
sI4374
S'Godet (sewing)'
p4374
sI4375
S'Afghan Coat'
p4375
sI4376
S'Lookbook'
p4376
sI4377
S'Low-rise (fashion)'
p4377
sI4378
S'Tembel hat'
p4378
sI4379
S'Koningsdag'
p4379
sI4380
S'Peineta (comb)'
p4380
sI4381
S'Chang kben'
p4381
sI4382
S'Phrygian helmet'
p4382
sI4383
S'Mughal Empire'
p4383
sI4384
S'Veilkini'
p4384
sI4385
S'Thracian clothing'
p4385
sI4386
S'Order of the Star of Italian Solidarity'
p4386
sI4387
S'Avarca'
p4387
sI4388
S'Tough Love (TV series)'
p4388
sI4389
S'Hanten'
p4389
sI4390
S'Executive suite'
p4390
sI4391
S'Asking Alexandria'
p4391
sI4392
S'Navratri'
p4392
sI4393
S'Sbai'
p4393
sI4394
S'Leather jacket'
p4394
sI4395
S'Kendall Jenner'
p4395
sI4396
S'Sailor cap'
p4396
sI4397
S'Doobon coat'
p4397
sI4398
S'Bishop Andrewes cap'
p4398
sI4399
S'Freshpair'
p4399
sI4400
S'Recessional hymn'
p4400
sI4401
S'Reversible garment'
p4401
sI4402
S'Cowichan knitting'
p4402
sI4403
S'Category:School dances'
p4403
sI4404
S'Debs and grads'
p4404
sI4405
S'Animal print'
p4405
sI4406
S'Sambalpuri saree'
p4406
sI4407
S'Category:Western Canada'
p4407
sI4408
S'Perak (headdress)'
p4408
sI4409
S'Cosmetics in Ancient Rome'
p4409
sI4410
S'Av Pak'
p4410
sI4411
S'Lehenga Style Saree'
p4411
sI4412
S'Jazz shoe'
p4412
sI4413
S'Aguayo (cloth)'
p4413
sI4414
S'Sampot Samloy'
p4414
sI4415
S'Fricke v. Lynch'
p4415
sI4416
S'Erusin'
p4416
sI4417
S'Contemporary Western wedding dress'
p4417
sI4418
S'Kundan'
p4418
sI4419
S'Serape'
p4419
sI4420
S'Prom Night in Mississippi'
p4420
sI4421
S'Chancery (medieval office)'
p4421
sI4422
S'Irish lace'
p4422
sI4423
S'Coloured hat'
p4423
sI4424
S'Biblical sandals'
p4424
sI4425
S'Tussar silk'
p4425
sI4426
S'Category:Philosophy of love'
p4426
sI4427
S'Pencil suit'
p4427
sI4428
S'Ghillie shirt'
p4428
sI4429
S'Clothing in the Ragtime Era'
p4429
sI4430
S'Devilock'
p4430
sI4431
S'Lace wig'
p4431
sI4432
S'Coordinated Universal Time'
p4432
sI4433
S'Multi-Terrain Pattern'
p4433
sI4434
S'Toe tights'
p4434
sI4435
S'Falling buffe'
p4435
sI4436
S'Category:Culture of the Western United States'
p4436
sI4437
S'Traditional Welsh costume'
p4437
sI4438
S'Military beret'
p4438
sI4439
S'Category:2010s fashion'
p4439
sI4440
S'Realia (library science)'
p4440
sI4441
S'Daxiushan'
p4441
sI4442
S'Thorns, spines, and prickles'
p4442
sI4443
S'Brogan (shoes)'
p4443
sI4444
S'Trading jacket'
p4444
sI4445
S'Baju Kurung'
p4445
sI4446
S'School uniforms in England'
p4446
sI4447
S'Wrap (clothing)'
p4447
sI4448
S'Xinjiang'
p4448
sI4449
S'Marriage in Japan'
p4449
sI4450
S'Kamleika'
p4450
sI4451
S'Timothy Brook'
p4451
sI4452
S'The Confusions of Pleasure'
p4452
sI4453
S'Jeggings'
p4453
sI4454
S'Jews'
p4454
sI4455
S'Dush-toh'
p4455
sI4456
S'Underwear as outerwear'
p4456
sI4457
S'Croatian national costume'
p4457
sI4458
S'Papi (brand)'
p4458
sI4459
S'Marcasite jewellery'
p4459
sI4460
S'Pahlavi hat'
p4460
sI4461
S'Tatami (Japanese armour)'
p4461
sI4462
S'Wikipedia:AutoWikiBrowser/General fixes'
p4462
sI4463
S'Ahmadiyya'
p4463
sI4464
S'Green wedding'
p4464
sI4465
S'Islamic marital practices'
p4465
sI4466
S'Pheta (turban)'
p4466
sI4467
S'Pagri (turban)'
p4467
sI4468
S'Holland cloth'
p4468
sI4469
S'Debby Herbenick'
p4469
sI4470
S'Cinco de Mayo'
p4470
sI4471
S'Sericin'
p4471
sI4472
S'Arranged marriage'
p4472
sI4473
S'The New Islander'
p4473
sI4474
S'Money bag'
p4474
sI4475
S'Drawstring'
p4475
sI4476
S'Fashion museum'
p4476
sI4477
S'Prahlada'
p4477
sI4478
S'Amrapali (film)'
p4478
sI4479
S'Riding coat'
p4479
sI4480
S'Blasphemy Day'
p4480
sI4481
S'Maria Clara gown'
p4481
sI4482
S'Play (theatre)'
p4482
sI4483
S'Oregon'
p4483
sI4484
S'Bathing dress'
p4484
sI4485
S'2010 Itawamba County School District prom controversy'
p4485
sI4486
S'Colonel Sanders'
p4486
sI4487
S'Native American jewelry'
p4487
sI4488
S'Mockado'
p4488
sI4489
S'Outline of festivals'
p4489
sI4490
S'Online diary planner'
p4490
sI4491
S'Vineyard Vines'
p4491
sI4492
S'Austria'
p4492
sI4493
S'British Inspiration Awards'
p4493
sI4494
S'Non-resident Indian and person of Indian origin'
p4494
sI4495
S'Wadmal'
p4495
sI4496
S'Georgette (fabric)'
p4496
sI4497
S'Juliet cap'
p4497
sI4498
S'Sauna suit'
p4498
sI4499
S'Boyar hat'
p4499
sI4500
S'Zoosk'
p4500
sI4501
S'Jejemon'
p4501
sI4502
S'Sombrero de catite'
p4502
sI4503
S'Form-fitting garment'
p4503
sI4504
S'Madras (costume)'
p4504
sI4505
S'Katniss Everdeen'
p4505
sI4506
S'Underwear fetishism'
p4506
sI4507
S'Fouta towel'
p4507
sI4508
S'List of types of fur'
p4508
sI4509
S'Traje de flamenca'
p4509
sI4510
S'Dupioni'
p4510
sI4511
S'Kirza'
p4511
sI4512
S'Spread tow fabric'
p4512
sI4513
S'Category:Survey methodology'
p4513
sI4514
S'School uniforms in Sri Lanka'
p4514
sI4515
S'Rugby shorts'
p4515
sI4516
S'Duty armband'
p4516
sI4517
S'Flamenco shoe'
p4517
sI4518
S'Rugby socks'
p4518
sI4519
S'Polos'
p4519
sI4520
S'Textiles of Mexico'
p4520
sI4521
S'Kostenki'
p4521
sI4522
S'Raj pattern'
p4522
sI4523
S'Rubia tinctorum'
p4523
sI4524
S'Carnival in Germany, Switzerland and Austria'
p4524
sI4525
S'Herero'
p4525
sI4526
S'Silambu'
p4526
sI4527
S'Namaksin'
p4527
sI4528
S'Pampootie'
p4528
sI4529
S'Jangot'
p4529
sI4530
S'Baji (clothing)'
p4530
sI4531
S'Glossary of sewing terms'
p4531
sI4532
S'Myeonbok'
p4532
sI4533
S'Weighted silk'
p4533
sI4534
S'Marryoke'
p4534
sI4535
S'Poet shirt'
p4535
sI4536
S'Category:Tops (clothing)'
p4536
sI4537
S'Medical bag'
p4537
sI4538
S'Something old'
p4538
sI4539
S'Braies'
p4539
sI4540
S'File:Stocking factory2.jpg'
p4540
sI4541
S'Kariyushi shirt'
p4541
sI4542
S'Traje de luces'
p4542
sI4543
S'Rocker bottom shoe'
p4543
sI4544
S'Hip, Hip, Hurrah!'
p4544
sI4545
S'Bengali Hindus'
p4545
sI4546
S'Manta (dress)'
p4546
sI4547
S'Business Casual (Chromeo album)'
p4547
sI4548
S'Chilote cap'
p4548
sI4549
S'Russian boot'
p4549
sI4550
S'Scogger'
p4550
sI4551
S'Unisex clothing'
p4551
sI4552
S'Shell gorget'
p4552
sI4553
S'Shahmina'
p4553
sI4554
S'Wine country casual'
p4554
sI4555
S"Monk's cloth"
p4555
sI4556
S'Estonia'
p4556
sI4557
S'Lining (sewing)'
p4557
sI4558
S'Fashion entrepreneur'
p4558
sI4559
S'Crew neck'
p4559
sI4560
S'Pasiking'
p4560
sI4561
S'Luhkka'
p4561
sI4562
S'Zouave jacket'
p4562
sI4563
S'Facing (sewing)'
p4563
sI4564
S'Goggle jacket'
p4564
sI4565
S'Balgha'
p4565
sI4566
S'Celtic brooch'
p4566
sI4567
S'Cut-resistant gloves'
p4567
sI4568
S'Court uniform and dress'
p4568
sI4569
S'Paduasoy'
p4569
sI4570
S'Sitalsasthi'
p4570
sI4571
S'Uniform beret'
p4571
sI4572
S'Diplomatic uniform'
p4572
sI4573
S'Paper clothing'
p4573
sI4574
S'News conference'
p4574
sI4575
S'Footwraps'
p4575
sI4576
S'Groves classification system'
p4576
sI4577
S'Chilote poncho'
p4577
sI4578
S'String bag'
p4578
sI4579
S'Plague doctor costume'
p4579
sI4580
S'Xhamadan'
p4580
sI4581
S'Opinga'
p4581
sI4582
S'Brez (clothing)'
p4582
sI4583
S'Headgear'
p4583
sI4584
S'Mahiole'
p4584
sI4585
S'Gary Robinson'
p4585
sI4586
S'Frida Giannini'
p4586
sI4587
S'Lionel Logue'
p4587
sI4588
S'Bangladesh University of Textiles'
p4588
sI4589
S'Tregging'
p4589
sI4590
S'Daura-Suruwal'
p4590
sI4591
S'Category:Party stores'
p4591
sI4592
S'Lamba (garment)'
p4592
sI4593
S'Holbeinesque jewellery'
p4593
sI4594
S'List of festivals in Japan'
p4594
sI4595
S'The Only Way Is Essex'
p4595
sI4596
S'Prom (film)'
p4596
sI4597
S'Shalwar kameez'
p4597
sI4598
S'MANGO Fashion Awards'
p4598
sI4599
S'Raja (festival)'
p4599
sI4600
S'Restart (band)'
p4600
sI4601
S'Bridegroom'
p4601
sI4602
S'Flower girl'
p4602
sI4603
S'Page boy (wedding attendant)'
p4603
sI4604
S'Troentorp Clogs'
p4604
sI4605
S'Category:Wedding clothing'
p4605
sI4606
S'Category:Engagement'
p4606
sI4607
S'Clear heels'
p4607
sI4608
S'Bomkai Sari'
p4608
sI4609
S'Che Guevara in fashion'
p4609
sI4610
S'Khandua'
p4610
sI4611
S'Jazerant'
p4611
sI4612
S'Albanian hat'
p4612
sI4613
S'Trabea'
p4613
sI4614
S'Wedding of Prince William and Catherine Middleton'
p4614
sI4615
S'NPR'
p4615
sI4616
S'Podvorotnichok'
p4616
sI4617
S'Processional hymn'
p4617
sI4618
S'Solenn Heussaff'
p4618
sI4619
S'Kendrick Lamar'
p4619
sI4620
S'Surcingle belt'
p4620
sI4621
S'Collective wedding'
p4621
sI4622
S'Sindhi cap'
p4622
sI4623
S'Trival'
p4623
sI4624
S'Turkish trousers'
p4624
sI4625
S'Gamurra'
p4625
sI4626
S'Sacraments of the Catholic Church'
p4626
sI4627
S'Fillet (clothing)'
p4627
sI4628
S'Byzantine silk'
p4628
sI4629
S'If You Are the One (game show)'
p4629
sI4630
S'Pippa Middleton'
p4630
sI4631
S'Pin-back button'
p4631
sI4632
S'Natural dye'
p4632
sI4633
S'Office space planning'
p4633
sI4634
S'Alta (dye)'
p4634
sI4635
S'Gajra'
p4635
sI4636
S'Late Roman ridge helmet'
p4636
sI4637
S'Category:Holiday-related topics'
p4637
sI4638
S'Glossary of dyeing terms'
p4638
sI4639
S'Ave Maria lace'
p4639
sI4640
S'Category:History of Asian clothing'
p4640
sI4641
S'Tobi trousers'
p4641
sI4642
S'Shoelace knot'
p4642
sI4643
S'Driving glove'
p4643
sI4644
S'Aviator hat'
p4644
sI4645
S'Uwabaki'
p4645
sI4646
S'Snow boot'
p4646
sI4647
S'Cowboy boot'
p4647
sI4648
S'Kalamkari'
p4648
sI4649
S'Waist cincher'
p4649
sI4650
S'Trumpet voluntary'
p4650
sI4651
S'Pom-pom'
p4651
sI4652
S'Kartikeya'
p4652
sI4653
S'Papakha'
p4653
sI4654
S'Rama Navami'
p4654
sI4655
S'Gota (embroidery)'
p4655
sI4656
S'Costume de rigueur'
p4656
sI4657
S'Georgina Wilson'
p4657
sI4658
S'Tactical pants'
p4658
sI4659
S'Jorabs'
p4659
sI4660
S'Supreme (clothing)'
p4660
sI4661
S'Category:Works originally published in Startling Stories'
p4661
sI4662
S'Thread (yarn)'
p4662
sI4663
S'Abaca slippers'
p4663
sI4664
S'Saskia de Brauw'
p4664
sI4665
S'Kira Cochrane'
p4665
sI4666
S'Promised Reformer Day'
p4666
sI4667
S'Paambadam'
p4667
sI4668
S'Wedding customs by country'
p4668
sI4669
S'Anything Other Than Naked'
p4669
sI4670
S'Sikh chola'
p4670
sI4671
S'Dori shoes'
p4671
sI4672
S'Amy Childs'
p4672
sI4673
S'Shearling coat'
p4673
sI4674
S'Fashion forecasting'
p4674
sI4675
S'Online interview'
p4675
sI4676
S"Washington's Birthday"
p4676
sI4677
S'Close-bodied gown'
p4677
sI4678
S'Clothing in ancient Egypt'
p4678
sI4679
S'Caraco'
p4679
sI4680
S'Shoe buckle'
p4680
sI4681
S'Dutch Fashion Awards'
p4681
sI4682
S'Elizabeth Smith Miller'
p4682
sI4683
S'Slouch socks'
p4683
sI4684
S'High-rise (fashion)'
p4684
sI4685
S'Instagram'
p4685
sI4686
S'Wedding dress of Kate Middleton'
p4686
sI4687
S'Battenberg lace'
p4687
sI4688
S'Wedding dress of Lady Diana Spencer'
p4688
sI4689
S'Wedding dress of Princess Elizabeth'
p4689
sI4690
S'Wedding dress of Queen Victoria'
p4690
sI4691
S'Wedding dress of Grace Kelly'
p4691
sI4692
S'Category:Wedding dresses'
p4692
sI4693
S'Honiton lace'
p4693
sI4694
S'Wedding dress of Wallis Warfield'
p4694
sI4695
S"Sou'wester"
p4695
sI4696
S'Affiance (band)'
p4696
sI4697
S'Fashion matrix'
p4697
sI4698
S'One Direction'
p4698
sI4699
S'Penshoppe'
p4699
sI4700
S'Egyptians'
p4700
sI4701
S'Blouson'
p4701
sI4702
S'Fashion Central'
p4702
sI4703
S'Mexican pointy boots'
p4703
sI4704
S'Roach (headdress)'
p4704
sI4705
S'Antwerp'
p4705
sI4706
S'Colour fastness'
p4706
sI4707
S'Rain pants'
p4707
sI4708
S'Recreational travel'
p4708
sI4709
S'Uniforms of the American Civil War'
p4709
sI4710
S'Bangalore Fashion Week'
p4710
sI4711
S'List of festivals in Pakistan'
p4711
sI4712
S'Teen Spirit (film)'
p4712
sI4713
S'Suneet Varma'
p4713
sI4714
S'Pasapali Sari'
p4714
sI4715
S'Kim Soo-hyun'
p4715
sI4716
S'Norma Kamali'
p4716
sI4717
S'University of Dhaka'
p4717
sI4718
S'Buffalo coat'
p4718
sI4719
S'POW bracelet'
p4719
sI4720
S'Dotted Swiss (fabric)'
p4720
sI4721
S'Kupiah'
p4721
sI4722
S'Attifet'
p4722
sI4723
S'List of festivals in Tunisia'
p4723
sI4724
S'Yanggwan'
p4724
sI4725
S"Women's clothing in China"
p4725
sI4726
S'NHS, Inc.'
p4726
sI4727
S'Kymi, Greece'
p4727
sI4728
S'Umbrella hat'
p4728
sI4729
S'Morphsuits'
p4729
sI4730
S'Kho (costume)'
p4730
sI4731
S'Binyeo'
p4731
sI4732
S'Toego'
p4732
sI4733
S'Peshawari chappal'
p4733
sI4734
S'Izaar'
p4734
sI4735
S'Guimpe'
p4735
sI4736
S'Party dress'
p4736
sI4737
S'Feather tights'
p4737
sI4738
S'Norigae'
p4738
sI4739
S'School uniforms in South Korea'
p4739
sI4740
S'Mushanana'
p4740
sI4741
S'Wonju (Bhutan)'
p4741
sI4742
S'1907 Sydney bathing costume protests'
p4742
sI4743
S'Stormy Kromer cap'
p4743
sI4744
S'M. Visvesvaraya'
p4744
sI4745
S'Boot socks'
p4745
sI4746
S'Eunjangdo'
p4746
sI4747
S'List of textile fibres'
p4747
sI4748
S'List of fabric names'
p4748
sI4749
S'Telephone interview'
p4749
sI4750
S'Stirrup pants'
p4750
sI4751
S'Dwikkoji'
p4751
sI4752
S'Yoga pants'
p4752
sI4753
S'ASAP Rocky'
p4753
sI4754
S'Qualitative Health Research'
p4754
sI4755
S'Rimless eyeglasses'
p4755
sI4756
S'Palazzo pants'
p4756
sI4757
S'Dumalla'
p4757
sI4758
S'Cheopji'
p4758
sI4759
S'Dragon robe'
p4759
sI4760
S'Fuck-me shoes'
p4760
sI4761
S'Azealia Banks'
p4761
sI4762
S'Desperate Scousewives'
p4762
sI4763
S'Rajo Laurel'
p4763
sI4764
S'Courtepy'
p4764
sI4765
S'Cabbage-tree hat'
p4765
sI4766
S'Cameleurion'
p4766
sI4767
S'Camisa blouse'
p4767
sI4768
S'Camocas'
p4768
sI4769
S'Can-can dress'
p4769
sI4770
S'Canepin'
p4770
sI4771
S'Canezou'
p4771
sI4772
S'Cuprammonium rayon'
p4772
sI4773
S'Choga'
p4773
sI4774
S'Zephyrina Jupon'
p4774
sI4775
S'Ferreruolo'
p4775
sI4776
S'Salako'
p4776
sI4777
S'Ruana'
p4777
sI4778
S'Clothing insulation'
p4778
sI4779
S'Donegal tweed'
p4779
sI4780
S'Skrillex'
p4780
sI4781
S'Holly Carpenter'
p4781
sI4782
S'Pangi (Maroon)'
p4782
sI4783
S'Danny Brown (rapper)'
p4783
sI4784
S'Joey Essex'
p4784
sI4785
S'Over-the-knee boot'
p4785
sI4786
S'Synthesis (clothing)'
p4786
sI4787
S'Haramaki (clothing)'
p4787
sI4788
S'Category:Indexes of topics'
p4788
sI4789
S'Utility clothing'
p4789
sI4790
S'Hoxton knot'
p4790
sI4791
S'Monmouth cap'
p4791
sI4792
S'Pointed shoe'
p4792
sI4793
S'Mac Miller'
p4793
sI4794
S'Sarpech'
p4794
sI4795
S'Open drawers'
p4795
sI4796
S'Kanthi mala'
p4796
sI4797
S'List of festivals in Bangladesh'
p4797
sI4798
S'Rosemount Ski Boots'
p4798
sI4799
S'End-on-end'
p4799
sI4800
S'Cieszyn folk costume'
p4800
sI4801
S'Driving moccasins'
p4801
sI4802
S'Flipsters'
p4802
sI4803
S'Neck gaiter'
p4803
sI4804
S'Anne Fogarty'
p4804
sI4805
S'Triglavka'
p4805
sI4806
S'Titovka (cap)'
p4806
sI4807
S"New Year's glasses"
p4807
sI4808
S'Tapestry crochet'
p4808
sI4809
S'Huarache (running shoe)'
p4809
sI4810
S'Klomp'
p4810
sI4811
S'Sabot (shoe)'
p4811
sI4812
S'Clog (British)'
p4812
sI4813
S'Sabretache'
p4813
sI4814
S'Category:Street fashion'
p4814
sI4815
S'Medieval jewelry'
p4815
sI4816
S'Joan Smalls'
p4816
sI4817
S'Azerbaijani traditional clothing'
p4817
sI4818
S'Portmanteau (luggage)'
p4818
sI4819
S'Category:18th-century fashion'
p4819
sI4820
S'Category:Deviance and social control'
p4820
sI4821
S'Tiger-head shoes'
p4821
sI4822
S'Overskirt'
p4822
sI4823
S'Peplum jacket'
p4823
sI4824
S'Peep-toe shoe'
p4824
sI4825
S'Macedonian national costume'
p4825
sI4826
S'Cara Delevingne'
p4826
sI4827
S'National costume of Indonesia'
p4827
sI4828
S'Tricana poveira'
p4828
sI4829
S'Lakme Fashion Week'
p4829
sI4830
S'Zoa Morani'
p4830
sI4831
S'Carrie (2013 film)'
p4831
sI4832
S'Occupational safety and health'
p4832
sI4833
S'Cross necklace'
p4833
sI4834
S'Harry Styles'
p4834
sI4835
S'La Perla (clothing)'
p4835
sI4836
S'High-low skirt'
p4836
sI4837
S'Handkerchief skirt'
p4837
sI4838
S'Open-crotch pants'
p4838
sI4839
S'Seapunk'
p4839
sI4840
S'Araimudi'
p4840
sI4841
S'True Religion'
p4841
sI4842
S'Hannibal (TV series)'
p4842
sI4843
S'Vasanta (Ritu)'
p4843
sI4844
S'Khilafat Day'
p4844
sI4845
S'Promised Messiah Day'
p4845
sI4846
S'Right to clothing'
p4846
sI4847
S'Grotulja'
p4847
sI4848
S'Kate Middleton effect'
p4848
sI4849
S'Setesdalsbunad'
p4849
sI4850
S'Ralph Lauren Corporation'
p4850
sI4851
S'Kancheepuram Silk'
p4851
sI4852
S'Snapback (hat)'
p4852
sI4853
S'Chalte Chalte (1976 film)'
p4853
sI4854
S'Anklet (sock)'
p4854
sI4855
S'National costumes of Poland'
p4855
sI4856
S'Modius (headdress)'
p4856
sI4857
S'Personal Clothing System'
p4857
sI4858
S'Undercut (hairstyle)'
p4858
sI4859
S'Channel View Publications'
p4859
sI4860
S'Shubha Khote'
p4860
sI4861
S'Yak lace'
p4861
sI4862
S'Yoke (clothing)'
p4862
sI4863
S'Windproof smock'
p4863
sI4864
S'Chugha'
p4864
sI4865
S'Puneri Pagadi'
p4865
sI4866
S'Kuthampully Saree'
p4866
sI4867
S'Vista All Terrain Pattern'
p4867
sI4868
S'Red carpet fashion'
p4868
sI4869
S'Lensless glasses'
p4869
sI4870
S'Away colours'
p4870
sI4871
S'Irish clothing'
p4871
sI4872
S'Bench (Philippine clothing brand)'
p4872
sI4873
S'Petersham ribbon'
p4873
sI4874
S'Blucher shoe'
p4874
sI4875
S'Satya Paul'
p4875
sI4876
S'Blood on the Dance Floor (duo)'
p4876
sI4877
S'Baluchari Sari'
p4877
sI4878
S'Lengberg Castle'
p4878
sI4879
S'Psy'
p4879
sI4880
S'List of festivals in the Philippines'
p4880
sI4881
S'Gangnam Style'
p4881
sI4882
S'Julie Spira'
p4882
sI4883
S'Category:Youth in Canada'
p4883
sI4884
S'Category:Youth in the United States'
p4884
sI4885
S'Snowmobile suit'
p4885
sI4886
S'Rigveda'
p4886
sI4887
S'5 Seconds of Summer'
p4887
sI4888
S"Miner's apron"
p4888
sI4889
S"Miner's habit"
p4889
sI4890
S'UK Lingerie Awards'
p4890
sI4891
S"Miner's cap"
p4891
sI4892
S'Mooskappe'
p4892
sI4893
S'Phormium'
p4893
sI4894
S'Facekini'
p4894
sI4895
S'Khrui'
p4895
sI4896
S'Marcelling'
p4896
sI4897
S'Gook (headgear)'
p4897
sI4898
S'Cointoise'
p4898
sI4899
S'Kalaghai'
p4899
sI4900
S'Matchy-Matchy'
p4900
sI4901
S"Women's oversized fashion in the United States since the 1920s"
p4901
sI4902
S'Belt hook'
p4902
sI4903
S'Bag'
p4903
sI4904
S'Wikipedia:Wikidata'
p4904
sI4905
S'Category:Workplace'
p4905
sI4906
S'Dumpra'
p4906
sI4907
S'Dumdyam'
p4907
sI4908
S'Varanasi'
p4908
sI4909
S'Biblical clothing'
p4909
sI4910
S'Aam Aadmi Party'
p4910
sI4911
S'Category:Lists of festivals in India'
p4911
sI4912
S'Fashion Design Council of India'
p4912
sI4913
S'Christmas jumper'
p4913
sI4914
S'Purple Mark'
p4914
sI4915
S'Ratha-Yatra'
p4915
sI4916
S'Cross country running shoe'
p4916
sI4917
S'Zonnar'
p4917
sI4918
S'Minangkabau marriage'
p4918
sI4919
S'Category:School terminology'
p4919
sI4920
S'Andrew Christian'
p4920
sI4921
S'Rebecca'
p4921
sI4922
S'Michael Cinco'
p4922
sI4923
S'Gap Inc.'
p4923
sI4924
S'Onesie (jumpsuit)'
p4924
sI4925
S'Sooranporu'
p4925
sI4926
S'Patola Sari'
p4926
sI4927
S'Bouffant gown'
p4927
sI4928
S'British Warm'
p4928
sI4929
S'Warp printing'
p4929
sI4930
S'Delhi Legislative Assembly election, 2013'
p4930
sI4931
S'Traditional clothing of Kosovo'
p4931
sI4932
S'Category:Dress codes'
p4932
sI4933
S'Sahrawi Arab Democratic Republic'
p4933
sI4934
S'Category:Clothing navigational boxes'
p4934
sI4935
S'Bhavana Balsavar'
p4935
sI4936
S'Template:Hats'
p4936
sI4937
S'Category:19th-century fashion'
p4937
sI4938
S'Category:17th-century fashion'
p4938
sI4939
S'Fashion Theory'
p4939
sI4940
S'Category:20th-century fashion'
p4940
sI4941
S'Category:21st-century fashion'
p4941
sI4942
S'Strapless dress'
p4942
sI4943
S'Willy warmer'
p4943
sI4944
S'House dress'
p4944
sI4945
S"International Workers' Day"
p4945
sI4946
S'Template:Academic dress'
p4946
sI4947
S'Hanfu'
p4947
sI4948
S"Driver's license"
p4948
sI4949
S'Roxy Jacenko'
p4949
sI4950
S'Secret dating'
p4950
sI4951
S'Vestoj'
p4951
sI4952
S'Peshawari pagri'
p4952
sI4953
S'Slip dress'
p4953
sI4954
S'List of festivals in Indonesia'
p4954
sI4955
S'Goa'
p4955
sI4956
S'Arctic Circle'
p4956
sI4957
S'Handfasting (Neopaganism)'
p4957
sI4958
S'Helena Fourment'
p4958
sI4959
S'Newar traditional clothing'
p4959
sI4960
S'Capote (garment)'
p4960
sI4961
S'Boston Fashion Week'
p4961
sI4962
S'Arthur Perigal'
p4962
sI4963
S'Rainbow Loom'
p4963
sI4964
S'Suki Waterhouse'
p4964
sI4965
S'John Fairchild (editor)'
p4965
sI4966
S'Template:Headgear'
p4966
sI4967
S'Covert coat'
p4967
sI4968
S'Guards coat'
p4968
sI4969
S'Human mating strategies'
p4969
sI4970
S'Coatdress'
p4970
sI4971
S'Fashion and clothing in the Philippines'
p4971
sI4972
S'Business Casual (EP)'
p4972
sI4973
S'Sweatpants'
p4973
sI4974
S'Police uniforms of the United States'
p4974
sI4975
S'Shweshwe'
p4975
sI4976
S'Goldworm'
p4976
sI4977
S'Portwest'
p4977
sI4978
S'Pell Research'
p4978
sI4979
S'Jonathan Toubin'
p4979
sI4980
S'Gigi Hadid'
p4980
sI4981
S'Sakshi (Witness)'
p4981
sI4982
S'Paletot'
p4982
sI4983
S'Bespoke'
p4983
sI4984
S'Category:Undergarments'
p4984
sI4985
S'Breton costume'
p4985
sI4986
S'Category:Youth events'
p4986
sI4987
S'Bread and Butter tradeshow'
p4987
sI4988
S'Sandeep Khosla'
p4988
sI4989
S'Lists of festivals'
p4989
sI4990
S'Princess line'
p4990
sI4991
S'Cape'
p4991
sI4992
S'Phiran'
p4992
sI4993
S'Category:Outerwear'
p4993
sI4994
S'Wangjin'
p4994
sI4995
S'Mino (straw cape)'
p4995
sI4996
S'Sailor dress'
p4996
sI4997
S'National archives'
p4997
sI4998
S'Jungfernstieg'
p4998
sI4999
S'Emina Ilhamy'
p4999
sI5000
S'Supra (brand)'
p5000
sI5001
S'Bangalore'
p5001
sI5002
S'Sindhi dress'
p5002
sI5003
S'Jammu dress'
p5003
sI5004
S'Mary Mei Loc Wu'
p5004
sI5005
S'Water Music (Handel)'
p5005
sI5006
S'Rang Panchami'
p5006
sI5007
S'Teejdi'
p5007
sI5008
S'Operation Match'
p5008
sI5009
S'Interview (journalism)'
p5009
sI5010
S'Couple interview'
p5010
sI5011
S'Interview (research)'
p5011
sI5012
S'British country clothing'
p5012
sI5013
S'Yemenite Jews in Israel'
p5013
sI5014
S'Zoran (designer)'
p5014
sI5015
S'Zayn Malik'
p5015
sI5016
S'Mesha Sankranti'
p5016
sI5017
S'List of travelers'
p5017
sI5018
S'Chengziguan'
p5018
sI5019
S'Athleisure'
p5019
sI5020
S'Skintern'
p5020
sI5021
S'Firaq partug'
p5021
sI5022
S'Category:Lists of observances'
p5022
sI5023
S"Academic dress of King's College London"
p5023
sI5024
S'Godavari Maha Pushkaram'
p5024
sI5025
S'Popover (dress)'
p5025
sI5026
S'Midway briefs'
p5026
sI5027
S'Angarkha'
p5027
sI5028
S'Jama (coat)'
p5028
sI5029
S'Agal (accessory)'
p5029
sI5030
S'Boubou (clothing)'
p5030
sI5031
S'Bisht (clothing)'
p5031
sI5032
S'Keffiyeh'
p5032
sI5033
S'Jellabiya'
p5033
sI5034
S'Thawb'
p5034
sI5035
S'Category:Procyon in fiction'
p5035
sI5036
S'Ritu Kumar'
p5036
sI5037
S'Agni'
p5037
sI5038
S'List of festivals in Asia'
p5038
sI5039
S'Category:Articles in Wikipedia Primary School Project SSAJRP'
p5039
sI5040
S'Peloponnesian Folklore Foundation'
p5040
sI5041
S'Matchcoat'
p5041
sI5042
S'Wikipedia:Articles for deletion/Job skirt'
p5042
sI5043
S'Argyll jacket'
p5043
sI5044
S"Louise de Broglie, Countess d'Haussonville"
p5044
sI5045
S'Category:Lists of religious festivals'
p5045
sI5046
S'Tom Brigance'
p5046
sI5047
S'Category:Lists of festivals in Pakistan'
p5047
sI5048
S'College interview'
p5048
sI5049
S'Yashica Dutt'
p5049
sI5050
S'Wikipedia:Sockpuppet investigations/Hoho24'
p5050
sI5051
S'Tereza Kuldova'
p5051
sI5052
S'Category:Indian wedding clothing'
p5052
sI5053
S'Nike (brand)'
p5053
sI5054
S'Winter carnival'
p5054
s.