(dp0
S'Wrestling shoe'
p1
I1734
sS'Crew neck'
p2
I4559
sS'Hanuman Jayanti'
p3
I2457
sS'Category:Undergarments'
p4
I4984
sS'Ghillie shirt'
p5
I4428
sS'Category:American Old West'
p6
I3946
sS'Motoring hood'
p7
I2885
sS'Tereza Kuldova'
p8
I5051
sS"Dance 'til Dawn"
p9
I3671
sS'Laura Dundovic'
p10
I4046
sS'Boshiya'
p11
I3159
sS'Vineyard Vines'
p12
I4491
sS'Maurya Empire'
p13
I1433
sS'Mystery Date (game)'
p14
I4178
sS'Justacorps'
p15
I3423
sS'Hip boot'
p16
I1840
sS"Boar's tusk helmet"
p17
I4270
sS'Athleisure'
p18
I5019
sS'Society of Jesus'
p19
I275
sS'Burning Man'
p20
I984
sS'Liverpool'
p21
I304
sS'Umbrella'
p22
I702
sS'Cheongsam'
p23
I1026
sS'Back closure'
p24
I3682
sS'Galesh'
p25
I3595
sS'Watch'
p26
I684
sS'Hejazi turban'
p27
I3527
sS'Gaiters'
p28
I2484
sS'Capirote'
p29
I4050
sS'Bobbin lace'
p30
I815
sS'Caraco'
p31
I4679
sS'Lappet'
p32
I2251
sS'Turkic peoples'
p33
I593
sS'Apache'
p34
I1219
sS'Zone (vestment)'
p35
I1892
sS'New Guinea'
p36
I4202
sS'Lungi'
p37
I1678
sS'Public holiday'
p38
I634
sS'Kinky boots'
p39
I2051
sS'Arthashastra'
p40
I1492
sS'Crew cut'
p41
I1638
sS'Roman Empire'
p42
I412
sS'GQ'
p43
I1438
sS'Phelonion'
p44
I1916
sS'Tallit'
p45
I807
sS'M42 jacket'
p46
I3747
sS'Boubou (clothing)'
p47
I5030
sS'Herman Miller (manufacturer)'
p48
I2021
sS'Surplice'
p49
I1159
sS'Sweatpants'
p50
I4973
sS'Category:Historical dance'
p51
I1949
sS'Broadstairs'
p52
I1227
sS'Corset controversy'
p53
I4329
sS'Memorial bracelet'
p54
I2220
sS'Quadrille dress'
p55
I4355
sS'Bharuch'
p56
I1522
sS'Gangaur'
p57
I2839
sS'Monokini'
p58
I1387
sS'Repertory grid'
p59
I1883
sS'Manila shawl'
p60
I4192
sS'Neckline'
p61
I3019
sS"Greek fisherman's cap"
p62
I3343
sS'Starter Clothing Line'
p63
I4235
sS'Dance party'
p64
I4226
sS'Midwestern United States'
p65
I777
sS'Pagri (turban)'
p66
I4467
sS'Dopo (clothing)'
p67
I4151
sS'Baseball uniform'
p68
I3981
sS'Bust/waist/hip measurements'
p69
I2616
sS'Dress of the Year'
p70
I4248
sS'Pakistani clothing'
p71
I4022
sS'Raj pattern'
p72
I4522
sS'Tira, Israel'
p73
I1162
sS'Waves (hairstyle)'
p74
I4278
sS'Kurtka'
p75
I1163
sS'Category:Interviews'
p76
I4218
sS'Klamath people'
p77
I286
sS'MA-1 bomber jacket'
p78
I3308
sS'South Korea'
p79
I438
sS'Miniver'
p80
I3120
sS'1940s'
p81
I541
sS'Gat (hat)'
p82
I2799
sS'London Fashion Week'
p83
I2720
sS'Bavaria'
p84
I109
sS'Dopp kit'
p85
I2671
sS'Wedding dress of Princess Elizabeth'
p86
I4689
sS"Harper's Bazaar"
p87
I1166
sS'Festival'
p88
I10
sS'If You Are the One'
p89
I4211
sS'Johnny Cash'
p90
I3717
sS'Pedal pushers'
p91
I2921
sS'Capuchon'
p92
I2807
sS'Chintz'
p93
I2273
sS'Fetish fashion'
p94
I783
sS'Elizabeth Hawes'
p95
I4282
sS'Malaysian cultural outfits'
p96
I3587
sS'Clutch (pin fastener)'
p97
I3523
sS'Scottish Highlands'
p98
I471
sS'Rangeela (film)'
p99
I1436
sS'Monterrey Institute of Technology and Higher Education, Mexico City'
p100
I3935
sS'List of festivals in Tunisia'
p101
I4723
sS'Patty Hill'
p102
I1664
sS'Textile recycling'
p103
I3561
sS'Elle (magazine)'
p104
I4266
sS'Gore (segment)'
p105
I3588
sS'Maquinna'
p106
I2643
sS'Telephone interview'
p107
I4749
sS'Desizing'
p108
I2076
sS'French hood'
p109
I3228
sS'Bar tack'
p110
I3643
sS'Upper Carniola'
p111
I2844
sS'Pub'
p112
I399
sS'Veldskoen'
p113
I3127
sS'Aboyne dress'
p114
I2394
sS'Spur'
p115
I1526
sS'Achkan'
p116
I2971
sS'Indonesia'
p117
I253
sS'Cummerbund'
p118
I1330
sS'Gangnam Style'
p119
I4881
sS'Delia (clothing)'
p120
I1927
sS'Prince of Wales'
p121
I598
sS'Gomesi'
p122
I4344
sS'Coolus helmet'
p123
I3459
sS'Category:School terminology'
p124
I4919
sS'Christmas controversy'
p125
I2691
sS'Swimsuit'
p126
I14
sS'Marwar'
p127
I2183
sS'Ohio'
p128
I369
sS'American Samoa'
p129
I4201
sS'Lightweight Rucksack'
p130
I3637
sS'Dhakai'
p131
I1858
sS'Motivation'
p132
I1028
sS'Calvin Klein'
p133
I3835
sS'Labrador'
p134
I678
sS'Camlet'
p135
I3051
sS'Higher School Certificate (New South Wales)'
p136
I1142
sS'Bunty Aur Babli'
p137
I2297
sS'Grameen check'
p138
I3290
sS'T-skirt'
p139
I4099
sS'Fashion plate'
p140
I3512
sS'Hair'
p141
I244
sS'Chemise cagoule'
p142
I4196
sS'Tabi'
p143
I1086
sS'Greaser (subculture)'
p144
I1635
sS'Sanbenito'
p145
I3409
sS'Azerbaijani traditional clothing'
p146
I4817
sS'Wheatus'
p147
I1451
sS'Feather bonnet'
p148
I3596
sS'Qualitative Health Research'
p149
I4754
sS'Epaulette'
p150
I1173
sS'Buskin'
p151
I2279
sS'Fricke v. Lynch'
p152
I4415
sS'Satyabhama'
p153
I2767
sS'Boyar hat'
p154
I4499
sS'Net (device)'
p155
I3583
sS'Cutsew'
p156
I2937
sS"Puttin' On the Ritz"
p157
I1706
sS'Kanthi mala'
p158
I4796
sS'Singles event'
p159
I4100
sS'Boot'
p160
I950
sS'Robert Propst (inventor)'
p161
I2892
sS'Natasha Poly'
p162
I3150
sS'Wrap dress'
p163
I3253
sS'North Carolina'
p164
I361
sS'Template:Lingerie'
p165
I3618
sS'Takchita'
p166
I4190
sS'Cutty-sark (witch)'
p167
I2289
sS'Category:Business ethics'
p168
I1895
sS'Wales'
p169
I714
sS'Wanli Emperor'
p170
I1250
sS'Ad hoc'
p171
I882
sS'Definitions of whiteness in the United States'
p172
I3614
sS'Fly (clothing)'
p173
I3731
sS'Levi Strauss & Co.'
p174
I1391
sS'African textiles'
p175
I3385
sS'The Twelve Days of Christmas (song)'
p176
I3429
sS'Category:Hosiery'
p177
I3535
sS'Chesterfield coat'
p178
I4130
sS'Southeast Christian Church (Louisville, Kentucky)'
p179
I2397
sS'Forage cap'
p180
I2442
sS'Marriage vows'
p181
I1590
sS'Gibson Girl'
p182
I1218
sS'Tailcoat'
p183
I1435
sS'Ganse cord'
p184
I4065
sS'Chignon (hairstyle)'
p185
I2949
sS'Oxford shoe'
p186
I1948
sS'Drive Me Crazy'
p187
I2737
sS'Three quarter pants'
p188
I2699
sS'Fashion museum'
p189
I4476
sS'Sperry Top-Sider'
p190
I2794
sS'Vaisakhi'
p191
I1951
sS'Synthesis (clothing)'
p192
I4786
sS'Gharara'
p193
I3980
sS'Jupe (jacket)'
p194
I2597
sS'Vaisakha'
p195
I1804
sS'Elle Style Awards'
p196
I2104
sS'Jokduri'
p197
I4125
sS'Southern belle'
p198
I2197
sS'Independent Catholic churches'
p199
I2353
sS'Donna Karan'
p200
I808
sS'Jerkin (garment)'
p201
I2078
sS'Away colours'
p202
I4870
sS'River Island'
p203
I1884
sS'Guayabera'
p204
I1643
sS'Multi-Terrain Pattern'
p205
I4433
sS'Harris Tweed'
p206
I2080
sS'Kyahan'
p207
I3295
sS'Scroll'
p208
I1836
sS'Henry Purcell'
p209
I240
sS'James Gillray'
p210
I1104
sS'Pancha Ganapati'
p211
I4210
sS'Wedding planner'
p212
I4305
sS'Cricket helmet'
p213
I2730
sS'Busk'
p214
I1306
sS'Somerset House'
p215
I1327
sS'Bluecoat'
p216
I3247
sS'Sacred Name Movement'
p217
I2934
sS'South Africa'
p218
I3998
sS'Dress boot'
p219
I4168
sS'Ray-Ban Wayfarer'
p220
I3084
sS'Cinema of the United States'
p221
I1281
sS'Pixie cut'
p222
I4091
sS'Demographics of India'
p223
I254
sS'Muhammad'
p224
I309
sS'Jeonbok'
p225
I4150
sS'Colombia'
p226
I131
sS'Skateboarding'
p227
I460
sS'Yom Kippur'
p228
I539
sS'T. E. Dikty'
p229
I1243
sS'Flannel'
p230
I1693
sS'Afro'
p231
I1674
sS'Embroidery of India'
p232
I3009
sS'Boat shoe'
p233
I4299
sS'Tilfi'
p234
I3440
sS'Woodblock printing on textiles'
p235
I3845
sS'Tainia (costume)'
p236
I3390
sS'Sari'
p237
I1272
sS'Fillet (clothing)'
p238
I4627
sS'Acrylic fiber'
p239
I2239
sS'Piazza Armerina'
p240
I2595
sS"M'zab"
p241
I2640
sS'Convention'
p242
I2726
sS'List of Sindhi festivals'
p243
I3992
sS'Fulling'
p244
I790
sS'DC Shoes'
p245
I1731
sS'Wetsuit'
p246
I912
sS'Faroese shawl'
p247
I3490
sS'Globalization'
p248
I599
sS'UK Lingerie Awards'
p249
I4890
sS'Consumer Product Safety Improvement Act'
p250
I4200
sS'Holy Cross Catholic Secondary School (St. Catharines)'
p251
I3844
sS'Foot binding'
p252
I911
sS'Andy Warhol'
p253
I74
sS'Category:Western Canada'
p254
I4407
sS'Family reunion'
p255
I1752
sS'Kippah'
p256
I1242
sS'Settlement conference'
p257
I2256
sS'Sheath dress'
p258
I3759
sS'Garter (stockings)'
p259
I3575
sS"Llawt'u"
p260
I3208
sS'Mechanical watch'
p261
I3566
sS'Bun (hairstyle)'
p262
I2340
sS'Fascinator'
p263
I3177
sS'Mary Poppins'
p264
I2796
sS'Luckenbooth brooch'
p265
I2129
sS'Founding Fathers of the United States'
p266
I1424
sS'Jordan'
p267
I3306
sS'Alsace'
p268
I617
sS'Category:Youth in the United States'
p269
I4884
sS'Riding habit'
p270
I2766
sS"Children's clothing"
p271
I2553
sS'Stomacher'
p272
I2686
sS'Palazzo pants'
p273
I4756
sS'Kalaghai'
p274
I4899
sS'Dhaka'
p275
I671
sS'Lux Style Awards'
p276
I3504
sS'Shell stitch'
p277
I3883
sS'Gospel of Matthew'
p278
I220
sS'Talk show'
p279
I749
sS'School uniform'
p280
I660
sS'Textile arts'
p281
I750
sS'Hwagwan'
p282
I4131
sS'Ratha-Yatra'
p283
I4915
sS'Washington Redskins'
p284
I530
sS'Missionary dating'
p285
I2392
sS'Balgha'
p286
I4565
sS'Mildred J. Hill'
p287
I3426
sS'Ghillies (dance)'
p288
I3853
sS'Avarca'
p289
I4387
sS'Twilight (2008 film)'
p290
I3841
sS'Sampot'
p291
I3472
sS'Red Serge'
p292
I1984
sS'Tsarouhi'
p293
I3451
sS'Obi-ita'
p294
I3834
sS'Salinas, California'
p295
I779
sS'Casual (subculture)'
p296
I1913
sS'List of festivals in Asia'
p297
I5038
sS'Speakeasy'
p298
I934
sS'Bench (Philippine clothing brand)'
p299
I4872
sS'Serbia'
p300
I475
sS'Psychiatric interview'
p301
I4220
sS'Phat pants'
p302
I2863
sS'MANGO Fashion Awards'
p303
I4598
sS'Bedford cord'
p304
I3422
sS'Mysore Peta'
p305
I4053
sS'Rosh Hashanah'
p306
I4155
sS'Sustainable fashion'
p307
I3749
sS'Patiala salwar'
p308
I2923
sS'Bloomers (clothing)'
p309
I2208
sS'Edmund Leighton'
p310
I2650
sS'Ring (jewellery)'
p311
I2751
sS'Shank (footwear)'
p312
I3971
sS'Serge (fabric)'
p313
I1419
sS'Helmet'
p314
I785
sS'Cut-resistant gloves'
p315
I4567
sS'Punjab (region)'
p316
I402
sS'Viyella'
p317
I3145
sS'Ghillie suit'
p318
I1295
sS'Xhamadan'
p319
I4580
sS'Piedmontese language'
p320
I1365
sS'Dickies'
p321
I1689
sS'Online interview'
p322
I4675
sS'Obi (martial arts)'
p323
I4293
sS'Forced marriage'
p324
I2390
sS'Aurelian'
p325
I587
sS'1960s in Western fashion'
p326
I3025
sS'Troentorp Clogs'
p327
I4604
sS'Stuff.co.nz'
p328
I3696
sS'Lehenga'
p329
I3677
sS'Medieval jewelry'
p330
I4815
sS'Aso Oke fabric'
p331
I3792
sS'Richard Nixon'
p332
I411
sS'Outerwear'
p333
I52
sS'Sedreh'
p334
I3413
sS'Islamic dress in Europe'
p335
I3361
sS'Dongzhi (solar term)'
p336
I2555
sS'Building Owners and Managers Association'
p337
I3367
sS'Western Odisha'
p338
I3838
sS'Setesdalsbunad'
p339
I4849
sS'British Fashion Awards'
p340
I2810
sS'Anthropology'
p341
I64
sS'Dot-com company'
p342
I2784
sS'Hip, Hip, Hurrah!'
p343
I4544
sS'Odia language'
p344
I1192
sS'John Gorka'
p345
I2284
sS'Category:Country music'
p346
I1566
sS'Cosmetics in Ancient Rome'
p347
I4409
sS'Spain'
p348
I426
sS'Whale tail'
p349
I2804
sS'Unstructured interview'
p350
I3620
sS'Marcelling'
p351
I4896
sS'Crown (headgear)'
p352
I756
sS'Culture of India'
p353
I1124
sS'White clothing (religious)'
p354
I3072
sS'Suneet Varma'
p355
I4713
sS'Sans-culottes'
p356
I1005
sS'Helena Fourment'
p357
I4958
sS'Romper suit'
p358
I3017
sS'September 21'
p359
I449
sS'Western dress codes'
p360
I39
sS'Abraham Bosse'
p361
I1536
sS'Unisex clothing'
p362
I4551
sS'Cosmetics in the 1920s'
p363
I3765
sS'Little black dress'
p364
I1398
sS'Iron-on'
p365
I2130
sS'NPR'
p366
I4615
sS'2010 Itawamba County School District prom controversy'
p367
I4485
sS'Stroller (style)'
p368
I3362
sS'Wedding sari'
p369
I4261
sS'American English'
p370
I83
sS'Live action role-playing game'
p371
I291
sS'Bedouin'
p372
I688
sS'Delhi Legislative Assembly election, 2013'
p373
I4930
sS'Carrie (2013 film)'
p374
I4831
sS'Ghoonghat'
p375
I4030
sS'India'
p376
I249
sS'Golden hat'
p377
I2440
sS'Aviator sunglasses'
p378
I3021
sS'Madisar'
p379
I2415
sS'Milan'
p380
I544
sS'Deerskin trade'
p381
I3207
sS'Rain pants'
p382
I4707
sS'Rebozo'
p383
I2666
sS'Sports bra'
p384
I3414
sS'List of festivals in Australia'
p385
I874
sS'Merino'
p386
I1410
sS'Endowment (Mormonism)'
p387
I1240
sS'Transport'
p388
I4055
sS'Charity shop'
p389
I1421
sS'Francis Kilvert'
p390
I1888
sS'Kente cloth'
p391
I1329
sS'Caulk boots'
p392
I3885
sS'Mauritania'
p393
I4068
sS'Category:Indian wedding clothing'
p394
I5052
sS'Helen Fisher (anthropologist)'
p395
I2846
sS'Hounskull'
p396
I3855
sS'List of grands couturiers'
p397
I2613
sS'Mongolia'
p398
I317
sS'Shiraro'
p399
I3446
sS'Dirndl'
p400
I2154
sS'Damascus'
p401
I181
sS'List of types of sartorial hijab'
p402
I1909
sS'Cycling shoe'
p403
I2521
sS'Type 97 Service Dress'
p404
I3865
sS'Royal Canadian Mounted Police'
p405
I708
sS'Culture of Scotland'
p406
I2037
sS'Amy Childs'
p407
I4672
sS'Business Casual'
p408
I61
sS'Karz (film)'
p409
I3197
sS'Coat of many colors'
p410
I3013
sS'Agal (accessory)'
p411
I5029
sS'Equestrian helmet'
p412
I2866
sS'Rosenmontag'
p413
I3060
sS'Jane Austen'
p414
I270
sS'Category:Procyon in fiction'
p415
I5035
sS'Stretching (body piercing)'
p416
I2095
sS'Dori shoes'
p417
I4671
sS'Championship belt'
p418
I2977
sS'Sikhism'
p419
I458
sS'Holi'
p420
I1356
sS'Red beret'
p421
I3573
sS"Women's oversized fashion in the United States since the 1920s"
p422
I4901
sS'Magnetic boots'
p423
I2992
sS'Kupiah'
p424
I4721
sS'Charles-Marie Widor'
p425
I791
sS'Zouave'
p426
I679
sS'Kerchief'
p427
I665
sS'Xinjiang'
p428
I4448
sS'Going commando'
p429
I3590
sS'Geta (footwear)'
p430
I1378
sS'Mountaineering boot'
p431
I3139
sS'Native Americans in the United States'
p432
I345
sS'Harry Styles'
p433
I4834
sS'Kikoi'
p434
I3666
sS'Mess dress'
p435
I1813
sS'Backless dress'
p436
I3716
sS"Academic dress of King's College London"
p437
I5023
sS'Lingerie'
p438
I557
sS'Marco Polo'
p439
I321
sS'Camauro'
p440
I2139
sS'Satlada'
p441
I3798
sS'Footwraps'
p442
I4575
sS'Scarf'
p443
I1366
sS'Lamba (garment)'
p444
I4592
sS'Nose piercing'
p445
I1036
sS'Sharovary'
p446
I4359
sS'Robert Sapolsky'
p447
I2303
sS'National Basketball Association'
p448
I367
sS'Tricorne'
p449
I1703
sS'Urtica dioica'
p450
I1294
sS'Torah'
p451
I487
sS'Galero'
p452
I1576
sS'Baju Kurung'
p453
I4445
sS'Net (textile)'
p454
I3510
sS'Aikidogi'
p455
I2331
sS'Nashim'
p456
I1264
sS'Mary Jane (shoe)'
p457
I2474
sS'Costume'
p458
I167
sS'Uganda'
p459
I505
sS'Tom Brigance'
p460
I5046
sS'Niger'
p461
I356
sS'A Date with Judy (film)'
p462
I3469
sS'Kettle hat'
p463
I2195
sS'Khata'
p464
I3727
sS'Waraji'
p465
I1488
sS'Organza'
p466
I2916
sS'Lampung'
p467
I1314
sS'Montera picona'
p468
I4331
sS'Almabtrieb'
p469
I2886
sS'Commonwealth of Nations'
p470
I4229
sS'Daopao'
p471
I4316
sS'Cavalier boots'
p472
I3658
sS'Dating coach'
p473
I3299
sS'Kartik Poornima'
p474
I4013
sS'Ingeo'
p475
I1190
sS'Annulment'
p476
I1003
sS'Buddhism'
p477
I2688
sS'Metropolitan Community Church'
p478
I1221
sS'Pangi (Maroon)'
p479
I4782
sS'Netela'
p480
I3559
sS'Independence Day (United States)'
p481
I1606
sS'Anja Rubik'
p482
I3499
sS'Jellabiya'
p483
I5033
sS'Shoulder pads'
p484
I2993
sS'Old Style and New Style dates'
p485
I1666
sS"Playsuit (children's clothing)"
p486
I3809
sS'Catherine, Duchess of Cambridge'
p487
I2121
sS'Judah (biblical person)'
p488
I991
sS'Benaf Dadachandji'
p489
I3106
sS'Traje de flamenca'
p490
I4509
sS'Beetling'
p491
I2329
sS'National League (English football)'
p492
I1143
sS'Category:Research methods'
p493
I2058
sS"Dawson's Creek"
p494
I869
sS'Throwback uniform'
p495
I2017
sS'Holbeinesque jewellery'
p496
I4593
sS'National Hockey League'
p497
I365
sS'1820s in Western fashion'
p498
I2785
sS'Warp printing'
p499
I4929
sS'Sporran'
p500
I1676
sS'La Tomatina'
p501
I742
sS'Tzitzit'
p502
I1814
sS'Casual Friday'
p503
I821
sS'FashionTV'
p504
I1843
sS'Haiti'
p505
I229
sS'Sitalsasthi'
p506
I4570
sS'List of fabric names'
p507
I4748
sS'Pearly Kings and Queens'
p508
I1402
sS'Oxford bags'
p509
I3457
sS'Ammunition boot'
p510
I3509
sS'Pontifical vestments'
p511
I3881
sS'Aviator hat'
p512
I4644
sS'Medical glove'
p513
I1758
sS'BBC'
p514
I4122
sS'Sportswear (fashion)'
p515
I57
sS'Little Lord Fauntleroy'
p516
I1010
sS'Peep-toe shoe'
p517
I4824
sS'Native American jewelry'
p518
I4487
sS'Black Madonna'
p519
I1102
sS'Pointe shoe'
p520
I1307
sS'Sex organ'
p521
I476
sS'Necklace'
p522
I1066
sS'Panama hat'
p523
I1339
sS'List of festivals in Morocco'
p524
I3396
sS'Capote (garment)'
p525
I4960
sS'American Football Conference'
p526
I66
sS'Bast shoe'
p527
I2590
sS'Epanokalimavkion'
p528
I2249
sS'Karnataka'
p529
I284
sS'Scrambled egg (uniform)'
p530
I3617
sS'Redfern (couture)'
p531
I3778
sS'Albanian hat'
p532
I4612
sS"Casquette d'Afrique"
p533
I2635
sS'Katniss Everdeen'
p534
I4505
sS'High-rise (fashion)'
p535
I4684
sS'Utica, New York'
p536
I745
sS'Marcasite jewellery'
p537
I4459
sS'Amice'
p538
I3969
sS'Skate shoe'
p539
I2070
sS'Serape'
p540
I4419
sS'Rugby socks'
p541
I4518
sS'Rondel (armour)'
p542
I3698
sS'Cocktail hat'
p543
I4369
sS'Heated clothing'
p544
I3763
sS"Bridget Jones's Diary"
p545
I706
sS'Kawaii'
p546
I1068
sS'British Inspiration Awards'
p547
I4493
sS'Kemp (wool)'
p548
I3273
sS'Earth Day'
p549
I852
sS'Keikogi'
p550
I2272
sS'Music festival'
p551
I3302
sS'Gauge (knitting)'
p552
I2535
sS'Chicago'
p553
I158
sS'Startling Stories'
p554
I2025
sS'Dangui'
p555
I4179
sS'Muslim world'
p556
I949
sS'Budenovka'
p557
I2470
sS'Human mating strategies'
p558
I4969
sS'Myeonbok'
p559
I4532
sS'Democratic Republic of the Congo'
p560
I730
sS'Michael Cinco'
p561
I4922
sS'Arm ring'
p562
I2752
sS'Kalpak'
p563
I3220
sS'Drapery'
p564
I1728
sS'Tewfik Pasha'
p565
I1821
sS'American Civil War'
p566
I73
sS'Slip-on shoe'
p567
I1137
sS'Newark, New Jersey'
p568
I703
sS'Shavuot'
p569
I1017
sS'Laundry'
p570
I806
sS'Kavadi Attam'
p571
I3319
sS'Earring'
p572
I1129
sS'George Sand'
p573
I637
sS'Huaso'
p574
I2045
sS'Telnyashka'
p575
I2961
sS'Jasmine'
p576
I759
sS'Odisha'
p577
I1059
sS'History of knitting'
p578
I1736
sS'St. Tropez belt'
p579
I2849
sS'Calf (leg)'
p580
I4337
sS'Galea (helmet)'
p581
I3210
sS'Ukrainian embroidery'
p582
I3877
sS'Reference.com'
p583
I1938
sS'Picot'
p584
I3229
sS'Low-rise (fashion)'
p585
I4377
sS'Mormonism'
p586
I340
sS'Justice of the peace'
p587
I1070
sS'Fengguan'
p588
I4319
sS'Orthodoxy'
p589
I1072
sS'One-piece swimsuit'
p590
I1540
sS'Dastar'
p591
I2938
sS'Page boy (wedding attendant)'
p592
I4603
sS'English medieval clothing'
p593
I4307
sS'Button'
p594
I1149
sS'Giorgio Oberweger'
p595
I3323
sS'Chupalla'
p596
I3592
sS'Tan beret'
p597
I3493
sS'Polar fleece'
p598
I2903
sS'Malays (ethnic group)'
p599
I1105
sS'Bikini'
p600
I127
sS'Latin'
p601
I294
sS'FUBU'
p602
I1037
sS'Gujarat'
p603
I647
sS'Dress uniform'
p604
I2637
sS'End-on-end'
p605
I4799
sS'Mackinaw cloth'
p606
I2551
sS'Reference interview'
p607
I3094
sS'Hongreline'
p608
I3461
sS'1980s in Western fashion'
p609
I2791
sS'Mohra (necklace)'
p610
I4181
sS'Temple car'
p611
I2413
sS'Adjustable-focus eyeglasses'
p612
I4098
sS'Amelia Bloomer'
p613
I4256
sS'"Wild Bill" Hickok'
p614
I1237
sS'Ugadi'
p615
I1280
sS'Table (furniture)'
p616
I1854
sS'Dry suit'
p617
I1120
sS'Punch (magazine)'
p618
I383
sS'Demi Moore'
p619
I943
sS'Mountain man'
p620
I1035
sS'Indigo dye'
p621
I624
sS'Anthony van Dyck'
p622
I1127
sS'East Timor'
p623
I4106
sS'Category:2000s fashion'
p624
I3081
sS'Natural dye'
p625
I4632
sS'Hindu texts'
p626
I1470
sS'Fedora'
p627
I1351
sS'Guru'
p628
I878
sS"Louise de Broglie, Countess d'Haussonville"
p629
I5044
sS'Possum-skin cloak'
p630
I3370
sS'Point de Venise'
p631
I2263
sS'Textiles of Mexico'
p632
I4520
sS'Bashlyk'
p633
I3501
sS'Kimono'
p634
I283
sS'Bag'
p635
I4903
sS'Ganges'
p636
I219
sS'Pom-pom'
p637
I4651
sS"Queen's Official Birthday"
p638
I1537
sS'Kariba suit'
p639
I3934
sS'Temple robes'
p640
I3059
sS'Kalamkari'
p641
I4648
sS'Gamurra'
p642
I4625
sS'Slouch socks'
p643
I4683
sS'Knitting'
p644
I279
sS'Liu Wen'
p645
I4349
sS'Bespoke'
p646
I4983
sS'Brand'
p647
I4083
sS'Bridal Chorus'
p648
I1741
sS'Chamois leather'
p649
I2193
sS'Batting glove'
p650
I3784
sS'Mordecai'
p651
I712
sS'Victorian dress reform'
p652
I1919
sS'Groundbreaking'
p653
I1541
sS'Saran (plastic)'
p654
I2356
sS'Stab vest'
p655
I3066
sS'Dwikkoji'
p656
I4751
sS'Limerick lace'
p657
I2265
sS'Taranga (clothing)'
p658
I4014
sS'Symposium (disambiguation)'
p659
I2464
sS'Korean birthday celebrations'
p660
I4208
sS'Maldives'
p661
I313
sS'Vanity sizing'
p662
I2842
sS'Indian wedding clothes'
p663
I59
sS'Pelisse'
p664
I2838
sS'Uttarayana'
p665
I2588
sS'Vibram FiveFingers'
p666
I4334
sS'Roach (headdress)'
p667
I4704
sS'Corsage'
p668
I1844
sS'Rocker bottom shoe'
p669
I4543
sS'Celts'
p670
I152
sS'Movember'
p671
I2622
sS'Kerseymere'
p672
I3391
sS'Online dating service'
p673
I885
sS'Population Action International'
p674
I4063
sS'Epsom Derby'
p675
I704
sS'Birthstone'
p676
I4024
sS'Mooskappe'
p677
I4892
sS'Nightcap (garment)'
p678
I3570
sS'Happi'
p679
I1754
sS'Woven fabric'
p680
I1148
sS'Sash'
p681
I1085
sS'Bahia'
p682
I968
sS'Intarsia (knitting)'
p683
I2238
sS'Boot jack'
p684
I2909
sS'Sleeve garter'
p685
I3417
sS'Mahiole'
p686
I4584
sS'Ramzan Kadyrov'
p687
I1517
sS'Beaver hat'
p688
I3064
sS'Inverness cape'
p689
I3190
sS'Simar'
p690
I3421
sS'Flip-flops'
p691
I1279
sS'Hessian (boot)'
p692
I2847
sS'Saraswati'
p693
I1048
sS'Pocket protector'
p694
I1730
sS'Flame retardant'
p695
I1613
sS'Covert coat'
p696
I4967
sS'Slip dress'
p697
I4953
sS'Social Development Network'
p698
I3211
sS'Cleanroom suit'
p699
I2479
sS'Abercrombie & Fitch'
p700
I3988
sS'Lolita fashion'
p701
I2123
sS'Dart (sewing)'
p702
I4221
sS'Frank Bunker Gilbreth, Sr.'
p703
I1562
sS'Cut and sew'
p704
I3861
sS'Hippie'
p705
I612
sS'Seaboot'
p706
I4096
sS'Military camouflage'
p707
I2753
sS'Virago sleeve'
p708
I3321
sS'Freja Beha Erichsen'
p709
I3345
sS'Max Planck Institute for Evolutionary Anthropology'
p710
I1725
sS'Christianity'
p711
I130
sS'Textile'
p712
I9
sS'Candlewicking'
p713
I2403
sS'South Region, Brazil'
p714
I1929
sS'Water shoe'
p715
I3875
sS'Harvard University'
p716
I4045
sS'Nihang'
p717
I2387
sS'Money clip'
p718
I2382
sS'Nubuck'
p719
I2978
sS'Malawi'
p720
I312
sS'Order of the Star of Italian Solidarity'
p721
I4386
sS'Penshoppe'
p722
I4699
sS'Yashica Dutt'
p723
I5049
sS'Close-bodied gown'
p724
I4677
sS'Giveh'
p725
I3518
sS'Christmas Eve'
p726
I846
sS'Changshan'
p727
I1027
sS'Christian clothing'
p728
I3191
sS'Purim'
p729
I958
sS'Bengali Hindus'
p730
I4545
sS'Anglican Communion'
p731
I76
sS'Girdle'
p732
I1757
sS'Pattern grading'
p733
I1135
sS'Selburose'
p734
I1672
sS'Victoria and Albert Museum'
p735
I757
sS'Birrus'
p736
I3978
sS'M-1941 Field Jacket'
p737
I3173
sS'Breathability'
p738
I3800
sS'Temple (Latter Day Saints)'
p739
I2039
sS'Veja Sneakers'
p740
I2931
sS'Tonsure'
p741
I801
sS'Buckingham Palace'
p742
I112
sS'Empire silhouette'
p743
I2404
sS'Teddy Boy'
p744
I2063
sS'Cuprammonium rayon'
p745
I4772
sS'Breeches'
p746
I2163
sS'Kufi'
p747
I2546
sS'Muslim holidays'
p748
I2285
sS'Hospitality'
p749
I2324
sS'Lobster-tailed pot helmet'
p750
I2835
sS'Nylon'
p751
I358
sS'Friendship'
p752
I3976
sS'Kira (Bhutan)'
p753
I2515
sS'Koteka'
p754
I2370
sS'Dyeing'
p755
I1800
sS'Duffel bag'
p756
I2352
sS'Hugo Boss'
p757
I2131
sS'Qualitative research'
p758
I1228
sS'The Saturday Evening Post'
p759
I1399
sS'Major professional sports leagues in the United States and Canada'
p760
I3480
sS'Khandua'
p761
I4610
sS'Strapless dress'
p762
I4942
sS'Soweto'
p763
I465
sS'Aloha shirt'
p764
I1318
sS'List of headgear'
p765
I1334
sS'Diyi'
p766
I4323
sS'Djelfa'
p767
I2148
sS'Discovery (observation)'
p768
I646
sS'Lone Ranger'
p769
I780
sS'Mao suit'
p770
I1131
sS'Lists of festivals'
p771
I4989
sS'Zain-ul-Abidin'
p772
I3067
sS'Flight jacket'
p773
I1979
sS'Punk subculture'
p774
I400
sS'Croatian national costume'
p775
I4457
sS'Djellaba'
p776
I3516
sS'Madiba shirt'
p777
I3288
sS'Clubwear'
p778
I44
sS'Category:Articles in Wikipedia Primary School Project SSAJRP'
p779
I5039
sS'Wedding customs by country'
p780
I4668
sS'Medical bag'
p781
I4537
sS'Suki Waterhouse'
p782
I4964
sS'Kate Middleton effect'
p783
I4848
sS'Pin stripes'
p784
I4005
sS'Pentecost'
p785
I597
sS'Category:Rooms'
p786
I1722
sS'Uwa-obi'
p787
I3294
sS'Diaper bag'
p788
I3932
sS'Ireland'
p789
I805
sS'Soorapadam'
p790
I1837
sS'Sovereignty'
p791
I468
sS'Dating'
p792
I45
sS'Beoseon'
p793
I4109
sS'Maha Shivaratri'
p794
I1802
sS'Gregorian calendar'
p795
I4341
sS'Clare Potter'
p796
I4285
sS'Akhara'
p797
I3547
sS'Icelandic tail-cap'
p798
I3543
sS'Sewing'
p799
I753
sS'Tang official headwear'
p800
I3779
sS'Baghdad'
p801
I126
sS'Skrillex'
p802
I4780
sS'Wikipedia:WikiProject Books'
p803
I3180
sS'Gothic fashion'
p804
I782
sS'Nose-jewel'
p805
I711
sS'Blangkon'
p806
I4195
sS'Furisode'
p807
I2779
sS"Saint Patrick's Day"
p808
I887
sS'Locking clothing'
p809
I3825
sS'Countries of the United Kingdom'
p810
I4052
sS'Ski suit'
p811
I2101
sS'Medicine bag'
p812
I1489
sS'Ultra sheer'
p813
I3238
sS'Casino Royale (2006 film)'
p814
I1700
sS'Tent dress'
p815
I3869
sS'Crakow (shoe)'
p816
I2469
sS'Algiers'
p817
I81
sS'Dark adaptor goggles'
p818
I2454
sS'Tsujigahana'
p819
I4043
sS'Abaca slippers'
p820
I4663
sS'Saber arch'
p821
I3833
sS'Pennsylvania'
p822
I386
sS'Fair Isle (technique)'
p823
I2059
sS'Poland'
p824
I376
sS'Tracksuit'
p825
I2054
sS'Gossip Girl'
p826
I4111
sS'Kasket'
p827
I3454
sS'Mintel'
p828
I3697
sS'Akubra'
p829
I1902
sS'Liberty bodice'
p830
I3236
sS'Uruguay'
p831
I506
sS'Textile manufacturing'
p832
I2344
sS'Christian headcovering'
p833
I3151
sS'Fiber art'
p834
I2013
sS'Hannibal (TV series)'
p835
I4842
sS'Telogreika'
p836
I3538
sS'Nantucket Reds'
p837
I3172
sS'Vidya Balan'
p838
I2311
sS'Brazilian jiu-jitsu gi'
p839
I3957
sS'Cincture'
p840
I1371
sS'Category:Dating'
p841
I3685
sS'Jewellery'
p842
I269
sS'Podvorotnichok'
p843
I4616
sS'Sicily'
p844
I451
sS'Dutch Fashion Awards'
p845
I4681
sS'Bengalis'
p846
I2867
sS'Kannada'
p847
I552
sS'Portuguese language'
p848
I391
sS'HarperCollins'
p849
I1064
sS'Symphony No. 9 (Beethoven)'
p850
I101
sS'Banarasi sari'
p851
I2649
sS'Puran Poli'
p852
I2539
sS'Hennin'
p853
I2918
sS'Carpenter jeans'
p854
I3695
sS'Retro style'
p855
I1013
sS'Same-sex marriage in Mexico'
p856
I3344
sS'1990s in fashion'
p857
I2585
sS'Madagascar'
p858
I310
sS'Ao dai'
p859
I1881
sS'Costume party'
p860
I29
sS'Pollera'
p861
I2582
sS'Fashion Theory'
p862
I4939
sS'Kartik (month)'
p863
I3494
sS'Vacation'
p864
I21
sS'Environmental impact of aviation'
p865
I3193
sS'Earth shoe'
p866
I1828
sS'Third jersey'
p867
I1244
sS'Kumihimo'
p868
I2801
sS'Social status'
p869
I977
sS'Pointed shoe'
p870
I4792
sS'Turban'
p871
I1095
sS'Provence'
p872
I619
sS'US standard clothing size'
p873
I3044
sS'City of London'
p874
I157
sS'Pew Research Center'
p875
I2628
sS'Male reproductive system'
p876
I2186
sS'Rama'
p877
I4129
sS'O Holy Night'
p878
I1870
sS'Arm warmer'
p879
I2038
sS'Anne Klein'
p880
I3281
sS'Japanese sword mountings'
p881
I2456
sS'Baby bumper headguard cap'
p882
I3761
sS'Henley shirt'
p883
I2477
sS'Exhibitionism'
p884
I1063
sS'Papua New Guinea'
p885
I377
sS'Haute couture'
p886
I4241
sS'Cowboy boot'
p887
I4647
sS'Zimbabwe'
p888
I540
sS'Sport coat'
p889
I2625
sS'Danny Brown (rapper)'
p890
I4783
sS'Coutil'
p891
I3453
sS'Wide leg jeans'
p892
I2491
sS'Culottes'
p893
I2174
sS'Clan Campbell'
p894
I921
sS'Parineeta (2005 film)'
p895
I2497
sS'Ribbing (knitting)'
p896
I3027
sS"Grand Duke's Official Birthday"
p897
I3178
sS'Boothose'
p898
I3403
sS'Jumpsoles'
p899
I3819
sS'Dragon Con'
p900
I1534
sS'Trinidad and Tobago'
p901
I2756
sS'Whipcord'
p902
I1914
sS'Cheopji'
p903
I4758
sS'Islamic marriage contract'
p904
I2385
sS'Suzy Menkes'
p905
I3200
sS'Western India'
p906
I2596
sS'Pennsylvania Dutch'
p907
I914
sS'Gota (embroidery)'
p908
I4655
sS'Category:Parliamentary procedure'
p909
I2986
sS'Burberry'
p910
I1799
sS'Mink'
p911
I841
sS'Nambawi'
p912
I4138
sS'Toque'
p913
I1158
sS'Chelsea boot'
p914
I2798
sS'Brooks Brothers'
p915
I1615
sS'Nuu-chah-nulth'
p916
I1096
sS'Mantilla'
p917
I2713
sS'Grand Tour'
p918
I1110
sS'E. F. Bleiler'
p919
I3282
sS'Pedestrian'
p920
I906
sS'Supermodel'
p921
I621
sS'Reza Abbasi'
p922
I1928
sS'Gartel'
p923
I2409
sS'Paraguay'
p924
I387
sS'Giuseppe Garibaldi'
p925
I4257
sS'Clothing'
p926
I5
sS"Debrett's"
p927
I2721
sS'Pantyhose'
p928
I952
sS'Sagyusam'
p929
I4146
sS'Category:Meetings'
p930
I1918
sS'Kate-bukuro'
p931
I3297
sS'Wimple'
p932
I1180
sS'Baraat'
p933
I1641
sS'Gowri Habba'
p934
I3298
sS'Mysore'
p935
I716
sS'The Awesome 80s Prom'
p936
I4274
sS'Lithuania'
p937
I293
sS'Cloak'
p938
I835
sS'Cambodia'
p939
I1176
sS'Patent leather'
p940
I1236
sS'Baldric'
p941
I124
sS'Underwear as outerwear'
p942
I4456
sS'New American Library'
p943
I2316
sS'Neo-Victorian'
p944
I1656
sS'Tiara'
p945
I1052
sS'1840s in Western fashion'
p946
I2631
sS'Norigae'
p947
I4738
sS'Training corset'
p948
I1695
sS'Meeting and convention planner'
p949
I2406
sS'Swim diaper'
p950
I4118
sS'Calvinism'
p951
I148
sS'Southern United States'
p952
I916
sS'Luhkka'
p953
I4561
sS'Loden cape'
p954
I4322
sS'Raglan sleeve'
p955
I2814
sS'Shirring'
p956
I3901
sS'Arab Christians'
p957
I1610
sS'Slovenia'
p958
I446
sS'Venice Film Festival'
p959
I517
sS'Cool Biz campaign'
p960
I2783
sS'Kirtle'
p961
I3315
sS'Mardi Gras'
p962
I560
sS'Local area network'
p963
I295
sS'Sanforization'
p964
I3048
sS'Category:Tourism'
p965
I1550
sS'Papakha'
p966
I4653
sS'Chaperon (headgear)'
p967
I3062
sS'Basque Country (autonomous community)'
p968
I4197
sS'Krishna'
p969
I577
sS'Open drawers'
p970
I4795
sS'Category:Dancewear'
p971
I48
sS'Gorget'
p972
I1798
sS'Spanish breeches'
p973
I3474
sS'Namdhari'
p974
I2685
sS'NHS, Inc.'
p975
I4726
sS'Ball (dance party)'
p976
I2147
sS'William-Adolphe Bouguereau'
p977
I1258
sS'Steven and Chris'
p978
I3884
sS'Jodhpurs'
p979
I2773
sS'Tapa cloth'
p980
I2342
sS'Hotan'
p981
I1567
sS'Wine'
p982
I523
sS'Pileus (hat)'
p983
I3770
sS'Paisley (design)'
p984
I964
sS'January 1'
p985
I271
sS'Pith helmet'
p986
I1903
sS'Antwerp'
p987
I4705
sS'Bilum'
p988
I1633
sS'Lusekofte'
p989
I3701
sS'Ayodhya'
p990
I575
sS'Magha (month)'
p991
I1807
sS'Chapatsu'
p992
I889
sS'Zac Posen'
p993
I2455
sS'Category:Textiles'
p994
I1690
sS'Brunswick (clothing)'
p995
I3101
sS'Stola'
p996
I942
sS'Filet lace'
p997
I2250
sS'Card enclosure'
p998
I3332
sS'Pongee'
p999
I3053
sS'Tindouf'
p1000
I2831
sS'Ballet flat'
p1001
I3651
sS'The Independent'
p1002
I776
sS'Bangladesh'
p1003
I102
sS'Necktie'
p1004
I1133
sS'Byzantine chain'
p1005
I3526
sS'Beca (garment)'
p1006
I3722
sS'Onesie (jumpsuit)'
p1007
I4924
sS'Chilote poncho'
p1008
I4577
sS'Geoffrey Gorer'
p1009
I3427
sS'Risky Business'
p1010
I1443
sS'Bikini variants'
p1011
I4224
sS'Major League Baseball'
p1012
I563
sS'Stray Cats'
p1013
I867
sS'Chapeau'
p1014
I3061
sS'Braccae'
p1015
I2989
sS'Boot socks'
p1016
I4745
sS'Nemes'
p1017
I3619
sS'Single-breasted'
p1018
I2698
sS'Book of Common Prayer'
p1019
I129
sS'Coatdress'
p1020
I4970
sS'University of Hawaii Press'
p1021
I3502
sS'Jubba'
p1022
I2904
sS'Beaux Arts Ball'
p1023
I4064
sS'Antwerp lace'
p1024
I2282
sS'Melbourne Cup'
p1025
I333
sS'Sleeve'
p1026
I2201
sS'Coordinated Universal Time'
p1027
I4432
sS'Islam in the Philippines'
p1028
I1876
sS'Motley'
p1029
I743
sS'Teen Vogue'
p1030
I2575
sS'Liz Claiborne (fashion designer)'
p1031
I2439
sS'International Congress Calendar'
p1032
I2490
sS'Pyrus communis'
p1033
I2064
sS'Category:Dress codes'
p1034
I4932
sS'Rajo Laurel'
p1035
I4763
sS'Ethnic minorities in Iran'
p1036
I1622
sS'Station wear'
p1037
I3142
sS'Uniform and insignia of the Boy Scouts of America'
p1038
I2335
sS'Facebook'
p1039
I3307
sS'Meiji Shrine'
p1040
I1126
sS'Armenia'
p1041
I3616
sS'Teen Spirit (film)'
p1042
I4712
sS'Symphony for Organ No. 5 (Widor)'
p1043
I3965
sS'Vishnudharmottara Purana'
p1044
I3534
sS'India Fashion Week'
p1045
I3802
sS'Kuthampully Saree'
p1046
I4866
sS'Sati (goddess)'
p1047
I2373
sS'Bindle'
p1048
I2359
sS'Supreme (clothing)'
p1049
I4660
sS'Cardigan (sweater)'
p1050
I965
sS'Boxer briefs'
p1051
I1739
sS'Interview (research)'
p1052
I5011
sS'Manmohan Singh'
p1053
I1482
sS'Trading jacket'
p1054
I4444
sS'OkCupid'
p1055
I2140
sS'Name tag'
p1056
I3659
sS'North America'
p1057
I341
sS'Sweden'
p1058
I3011
sS'Kashket'
p1059
I2980
sS'Coat pocket'
p1060
I4172
sS'Galway International Oyster Festival'
p1061
I2998
sS'Miuccia Prada'
p1062
I2693
sS'Neoprene'
p1063
I1001
sS'Wikipedia:AutoWikiBrowser/General fixes'
p1064
I4462
sS'Category:Birthdays'
p1065
I3040
sS'Nonwoven fabric'
p1066
I2871
sS'Haapsalu shawl'
p1067
I4251
sS'Aiguillette (ornament)'
p1068
I3769
sS'Kyle XY'
p1069
I3104
sS'Fair'
p1070
I1395
sS'High-visibility clothing'
p1071
I983
sS'Degrassi: The Next Generation'
p1072
I1480
sS'Guernsey (clothing)'
p1073
I1790
sS'Buff (colour)'
p1074
I2368
sS'Meena Kumari'
p1075
I2552
sS'Bridesmaid'
p1076
I1097
sS'Austria'
p1077
I4492
sS'Pill (textile)'
p1078
I4327
sS'Tea gown'
p1079
I2379
sS'Suzanne Lenglen'
p1080
I1560
sS"Conan O'Brien"
p1081
I2873
sS'Cameleurion'
p1082
I4766
sS'Category:Anthropology'
p1083
I1542
sS'Yemenite Jews in Israel'
p1084
I5013
sS'Shako'
p1085
I2191
sS'Tomesode'
p1086
I3515
sS'Cockade'
p1087
I1266
sS'The Sound of Music (film)'
p1088
I2964
sS'Tattoo'
p1089
I490
sS'John Rambo'
p1090
I4041
sS'Basque (clothing)'
p1091
I3738
sS'Office space planning'
p1092
I4633
sS'Greeks'
p1093
I574
sS'Sheepskin boots'
p1094
I2851
sS'Western culture'
p1095
I4233
sS'Scotland'
p1096
I437
sS'Bracteate'
p1097
I1481
sS'Jewellery in the Pacific'
p1098
I3258
sS'Political uniform'
p1099
I2077
sS'Isaac Oliver'
p1100
I2109
sS'Wikipedia:Spam'
p1101
I4094
sS'Bekishe'
p1102
I2127
sS'Cosmetics'
p1103
I847
sS'Central Asia'
p1104
I155
sS'Harry Potter'
p1105
I2429
sS'Rama Navami'
p1106
I4654
sS'Workplace politics'
p1107
I1302
sS'Fez'
p1108
I1161
sS'Cappello romano'
p1109
I2218
sS"Sean O'Pry"
p1110
I4174
sS'Samite'
p1111
I4008
sS'Villena'
p1112
I2041
sS'College interview'
p1113
I5048
sS'Red coat (British Army and Royal Marines)'
p1114
I2898
sS'Macquarie Dictionary'
p1115
I1090
sS'Shawl'
p1116
I1869
sS'Versace'
p1117
I1572
sS'Yoke (clothing)'
p1118
I4862
sS'Nonverbal communication'
p1119
I1447
sS'Artificial hair integrations'
p1120
I2461
sS'Purse hook'
p1121
I4191
sS'Cycling shorts'
p1122
I2520
sS'Yissocher Frand'
p1123
I2955
sS'Rajshahi silk'
p1124
I3140
sS'Category:Lists of festivals in India'
p1125
I4911
sS'Main course'
p1126
I1528
sS'Hobnail'
p1127
I3503
sS'1870s in Western fashion'
p1128
I1817
sS'Hair drop'
p1129
I3284
sS'Bell-boy jacket'
p1130
I3636
sS'Close helmet'
p1131
I3974
sS'Warp knitting'
p1132
I3079
sS'Half-birthday'
p1133
I1486
sS'Bhajan'
p1134
I903
sS'Peplum'
p1135
I1401
sS'Vishu'
p1136
I1475
sS'Nazi chic'
p1137
I2604
sS'Tommy Hilfiger'
p1138
I1301
sS'Snapback (hat)'
p1139
I4852
sS'Officium (Ancient Rome)'
p1140
I2260
sS'Ruby slippers'
p1141
I970
sS'Priestly sash'
p1142
I3921
sS'Norma Kamali'
p1143
I4716
sS'Marks & Spencer'
p1144
I839
sS'Kepi'
p1145
I1460
sS'Skort'
p1146
I1109
sS'Alice in Wonderland dress'
p1147
I4018
sS'Stackhat'
p1148
I4058
sS'Star Wars'
p1149
I428
sS'Orlando Bloom'
p1150
I3471
sS'Mary Poppins (film)'
p1151
I733
sS'Double knitting'
p1152
I3087
sS'Leadenhall Street'
p1153
I2166
sS'Business administration'
p1154
I680
sS'Zipper'
p1155
I1136
sS'Chiffon (fabric)'
p1156
I2593
sS'Lei (garland)'
p1157
I1544
sS'Vasanta (Ritu)'
p1158
I4843
sS'Qing official headwear'
p1159
I1497
sS'Category:Seasonal traditions'
p1160
I1546
sS'Messenger bag'
p1161
I2428
sS'Early medieval European dress'
p1162
I3752
sS'Religious habit'
p1163
I2778
sS'Rayon'
p1164
I862
sS'List of festivals in Nepal'
p1165
I4336
sS'Hockey pants'
p1166
I3379
sS'Bonnie Cashin'
p1167
I3820
sS'Subculture'
p1168
I819
sS'Hose (clothing)'
p1169
I2346
sS'Happy Birthday to You'
p1170
I747
sS'Death anniversary'
p1171
I3842
sS'Winklepicker'
p1172
I1905
sS'Bearskin'
p1173
I1743
sS'Laos'
p1174
I296
sS'Nike (brand)'
p1175
I5053
sS'Malta'
p1176
I315
sS'Chemise'
p1177
I1603
sS'Canonical impediment'
p1178
I3175
sS'Bonalu'
p1179
I3152
sS'Minyan'
p1180
I1452
sS'Bhadra (month)'
p1181
I1861
sS'Breton costume'
p1182
I4985
sS'Engaged (disambiguation)'
p1183
I1310
sS'Boardshorts'
p1184
I1959
sS'List of swimwear brands'
p1185
I3092
sS'LAN party'
p1186
I1292
sS'Frederick Winslow Taylor'
p1187
I986
sS'Chuck Taylor All-Stars'
p1188
I2119
sS'Clothing in Africa'
p1189
I2187
sS'Fibula (brooch)'
p1190
I3179
sS'Tibet'
p1191
I497
sS'Heather (fabric)'
p1192
I3580
sS'Pentecostalism'
p1193
I389
sS'Annual leave'
p1194
I3257
sS'Jackboot'
p1195
I2763
sS'Cornwall'
p1196
I142
sS'List of Hindu festivals'
p1197
I33
sS'Tau robe'
p1198
I4102
sS'Gugel'
p1199
I2446
sS'Black Country'
p1200
I892
sS'Music of India'
p1201
I250
sS'Vintage clothing'
p1202
I2642
sS'Western United States'
p1203
I918
sS'Tunica molesta'
p1204
I2915
sS'Bettsometer'
p1205
I3552
sS'Women and trousers'
p1206
I3766
sS'Eton College'
p1207
I645
sS'Marquesas Islands'
p1208
I816
sS'Fashion (2008 film)'
p1209
I3903
sS'Kris Kross'
p1210
I1760
sS'Indonesian National Police'
p1211
I4036
sS'Tightlacing'
p1212
I1285
sS'Tap pants'
p1213
I3265
sS'List of festivals in the Philippines'
p1214
I4880
sS'Physical training uniform'
p1215
I2951
sS'Category:Clothing'
p1216
I1574
sS'Rawhide (material)'
p1217
I1592
sS'Bob cut'
p1218
I1348
sS'Bling-bling'
p1219
I3918
sS'Ilkal saree'
p1220
I3605
sS'Keds (shoes)'
p1221
I2782
sS'Display (zoology)'
p1222
I3126
sS'Collar (jewelry)'
p1223
I2680
sS'English language'
p1224
I3405
sS'Non-governmental organization'
p1225
I602
sS'Dance belt'
p1226
I2725
sS'Julie Spira'
p1227
I4882
sS'Saskia de Brauw'
p1228
I4664
sS'Catholic Church'
p1229
I1483
sS'Hirohito'
p1230
I195
sS'Facilitation (business)'
p1231
I1015
sS'Wig'
p1232
I1033
sS'World War II'
p1233
I522
sS'Arctic Circle'
p1234
I4956
sS'Nurse uniform'
p1235
I659
sS'Lambswool'
p1236
I2601
sS'Gupta'
p1237
I1284
sS'Akihito'
p1238
I4339
sS'Bench (furniture)'
p1239
I2981
sS'Cuba'
p1240
I3004
sS'Kota Doria'
p1241
I3687
sS'Art jewelry'
p1242
I3271
sS'Kira Cochrane'
p1243
I4665
sS'Waitangi Day'
p1244
I1053
sS'Camel hair'
p1245
I2627
sS'Encaenia'
p1246
I2149
sS'Handfasting (Neopaganism)'
p1247
I4957
sS'Half-Windsor knot'
p1248
I2562
sS'Qing dynasty'
p1249
I405
sS'Boat neck'
p1250
I3648
sS'Tribal Gear'
p1251
I4097
sS'Homburg (hat)'
p1252
I2042
sS'Jaapi'
p1253
I3678
sS'Saturnalia'
p1254
I844
sS'Palmiro Togliatti'
p1255
I1416
sS'Velvet'
p1256
I789
sS'Mess jacket'
p1257
I3808
sS'Clerical clothing'
p1258
I2175
sS'Telugu people'
p1259
I2757
sS'Romanian dress'
p1260
I3754
sS'Ziryab'
p1261
I2433
sS'Metropolitan Museum of Art'
p1262
I554
sS'Horn-rimmed glasses'
p1263
I2538
sS'Category:20th-century fashion'
p1264
I4940
sS'Campaign hat'
p1265
I2169
sS'Lara Stone'
p1266
I3735
sS'Bowler hat'
p1267
I1283
sS'Garibaldi shirt'
p1268
I4012
sS'Joe Gibbs'
p1269
I1358
sS'Indiana'
p1270
I4287
sS'Louisiana'
p1271
I305
sS'Gable hood'
p1272
I3227
sS'Organization development'
p1273
I1012
sS'Turkmenistan'
p1274
I967
sS'Lock ring'
p1275
I1586
sS'Ode to Joy'
p1276
I4154
sS'Al-Andalus'
p1277
I1215
sS'Adornment'
p1278
I833
sS'Gaberdine'
p1279
I2110
sS'Tupperware'
p1280
I1324
sS'Fetish club'
p1281
I2525
sS'Aures, Algeria'
p1282
I2372
sS'Sailcloth'
p1283
I2719
sS'Sheva Brachot'
p1284
I2669
sS'Indian subcontinent'
p1285
I4203
sS'Waistline (clothing)'
p1286
I2602
sS'Swim briefs'
p1287
I4120
sS'Brooch'
p1288
I1178
sS'Valley Girl (film)'
p1289
I2441
sS'Mourning'
p1290
I945
sS'Persianate society'
p1291
I1661
sS'Koningsdag'
p1292
I4379
sS'Kokoshnik'
p1293
I3183
sS'Homecoming'
p1294
I1573
sS'Lutheranism'
p1295
I4343
sS'Goggles'
p1296
I1518
sS'Costume de rigueur'
p1297
I4656
sS'Atlanta'
p1298
I89
sS'Ahmedabad'
p1299
I990
sS'Rio Grande do Sul'
p1300
I1069
sS'Dominica'
p1301
I3708
sS'Bustier'
p1302
I2374
sS'Leotard'
p1303
I825
sS'Monarchy of the United Kingdom'
p1304
I610
sS'MEDLINE'
p1305
I1040
sS'Sukkot'
p1306
I466
sS'Jobawi'
p1307
I4137
sS'Liripipe'
p1308
I2768
sS'Fashion capital'
p1309
I3481
sS'Scrubs (clothing)'
p1310
I4101
sS'Blouson'
p1311
I4701
sS'Dotted Swiss (fabric)'
p1312
I4720
sS'Ceremonial dress'
p1313
I2366
sS'Riccardo Tisci'
p1314
I3541
sS'Judogi'
p1315
I2274
sS'Buzz cut'
p1316
I1245
sS'Vishnu'
p1317
I4119
sS'Jersey'
p1318
I268
sS'Hwa'
p1319
I4159
sS'Yoruba music'
p1320
I2451
sS'Cashmere wool'
p1321
I1383
sS'List of festivals in Costa Rica'
p1322
I4352
sS'Maidenform'
p1323
I2228
sS'1890s in Western fashion'
p1324
I1816
sS'Category:Transport culture'
p1325
I4062
sS'Namaksin'
p1326
I4527
sS'Afghanka'
p1327
I3539
sS'Takayama, Gifu'
p1328
I1168
sS'Chinese academic dress'
p1329
I3456
sS'Tunisian crochet'
p1330
I641
sS'Anklet (sock)'
p1331
I4854
sS'Energy dome'
p1332
I2157
sS'Buff coat'
p1333
I3553
sS'Alumnus'
p1334
I4084
sS'Peshawari pagri'
p1335
I4952
sS'Bindi (decoration)'
p1336
I1847
sS'United Parcel Service'
p1337
I989
sS'Papal tiara'
p1338
I928
sS'Exit examination'
p1339
I3226
sS'Anthony Eden hat'
p1340
I3217
sS'Cosplay'
p1341
I843
sS'Shambhala Publications'
p1342
I2363
sS'Plague doctor costume'
p1343
I4579
sS'World Intellectual Property Organization'
p1344
I526
sS'Geumbak'
p1345
I4141
sS'Rally cap'
p1346
I2939
sS'Kebaya'
p1347
I2542
sS'Red carpet fashion'
p1348
I4868
sS'Galoshes'
p1349
I2124
sS'Fred Perry'
p1350
I1121
sS'Slovakia'
p1351
I434
sS'Tsunokakushi'
p1352
I3166
sS'Platform shoe'
p1353
I1552
sS'Finding'
p1354
I2350
sS'Sharkskin'
p1355
I3964
sS'Longyi'
p1356
I2053
sS'Continental Europe'
p1357
I144
sS'Draped garment'
p1358
I830
sS'Puletasi'
p1359
I2517
sS'Horned helmet'
p1360
I1809
sS'Scene (subculture)'
p1361
I4281
sS'Cabbage-tree hat'
p1362
I4765
sS'Charles Frederick Worth'
p1363
I1569
sS'Sashtiabdhapoorthi'
p1364
I3430
sS'Guangzhou'
p1365
I221
sS'Montenegro'
p1366
I338
sS'Down feather'
p1367
I1811
sS'2(x)ist'
p1368
I3621
sS'Conservation and restoration of textiles'
p1369
I3692
sS'Elizabeth Taylor'
p1370
I581
sS'Brandeis University'
p1371
I737
sS'Ben Sherman'
p1372
I2544
sS'Sheer fabric'
p1373
I3773
sS'Balmoral bonnet'
p1374
I3317
sS'Knee highs'
p1375
I3163
sS'Category:Holiday-related topics'
p1376
I4637
sS'AXA Equitable Life Insurance Company'
p1377
I3702
sS'American pioneer'
p1378
I3879
sS'Stocking'
p1379
I899
sS"My Boyfriend's Back (1993 film)"
p1380
I1772
sS'Titian'
p1381
I836
sS'Collar pin'
p1382
I3537
sS'Zhou dynasty'
p1383
I589
sS'Libya'
p1384
I292
sS'Bedgown'
p1385
I2511
sS'Argyll jacket'
p1386
I5043
sS'Aran jumper'
p1387
I1715
sS'Brahma'
p1388
I4205
sS'Herero'
p1389
I4525
sS'Assam silk'
p1390
I3491
sS'Espadrille'
p1391
I1461
sS'Hairpin lace'
p1392
I2728
sS'Epimanikia'
p1393
I1958
sS'Liechtenstein'
p1394
I300
sS'Indian independence movement'
p1395
I860
sS'Male bra'
p1396
I3356
sS'Naturism'
p1397
I366
sS'Prairie skirt'
p1398
I2276
sS'Scogger'
p1399
I4550
sS'Mundum Neriyathum'
p1400
I3036
sS"Pachelbel's Canon"
p1401
I1183
sS'Mad Men'
p1402
I3714
sS'Extraocular implant'
p1403
I2821
sS'Corselet'
p1404
I1974
sS'Cooling vest'
p1405
I3063
sS'Portugal'
p1406
I380
sS'Scapular'
p1407
I1477
sS'Cuddle party'
p1408
I1835
sS'Peloponnesian Folklore Foundation'
p1409
I5040
sS'Unbirthday'
p1410
I2854
sS'Slipper'
p1411
I1238
sS'Llanwrtyd'
p1412
I1504
sS'Gaung baung'
p1413
I3952
sS'Czapka'
p1414
I2190
sS'Quakers'
p1415
I2959
sS'Birthday attack'
p1416
I947
sS'Courtepy'
p1417
I4764
sS'Hard hat'
p1418
I1076
sS'Church of the Nativity'
p1419
I691
sS'Gold-filled jewelry'
p1420
I3242
sS'Pallium'
p1421
I804
sS'Montenegrin cap'
p1422
I2178
sS'Muscadin'
p1423
I3171
sS'Talmud'
p1424
I488
sS'Category:Fashion accessories'
p1425
I3887
sS'List of balls in Vienna'
p1426
I4225
sS'Swabia'
p1427
I1495
sS'Catholicism'
p1428
I2925
sS'Tregging'
p1429
I4589
sS'Jockey International'
p1430
I2684
sS'Workshop (disambiguation)'
p1431
I4066
sS'Breeching (boys)'
p1432
I3785
sS'Salakot'
p1433
I3212
sS'Category:Pakistani clothing'
p1434
I2875
sS'Trumpet voluntary'
p1435
I4650
sS'Alberta'
p1436
I69
sS"Driver's license"
p1437
I4948
sS'Shoulder strap'
p1438
I2315
sS'List of festivals in Laos'
p1439
I2487
sS'Ecuador'
p1440
I187
sS'Agenda (meeting)'
p1441
I2019
sS'Same-sex marriage in the United States'
p1442
I1058
sS'Australia'
p1443
I2946
sS'Sakshi (Witness)'
p1444
I4981
sS'Angora wool'
p1445
I1210
sS'Style tribe'
p1446
I3940
sS'Felt'
p1447
I859
sS'Mod (subculture)'
p1448
I1620
sS'Bunny boots'
p1449
I3721
sS'Techno'
p1450
I4372
sS'Ultraviolet'
p1451
I511
sS'Chausses'
p1452
I2900
sS'Tokin'
p1453
I3340
sS'Bell sleeve'
p1454
I3657
sS'Match.com'
p1455
I2528
sS'Full dress'
p1456
I2608
sS'Djibouti'
p1457
I3982
sS'Mosaic'
p1458
I687
sS'Instagram'
p1459
I4685
sS'Tally (cap)'
p1460
I3667
sS'Cara Delevingne'
p1461
I4826
sS'Blazer'
p1462
I1989
sS'Lifestyle travelling'
p1463
I2748
sS'Leather'
p1464
I303
sS'University of Dhaka'
p1465
I4717
sS'Ascot Racecourse'
p1466
I1624
sS'EN 13402'
p1467
I2081
sS'Sam Browne belt'
p1468
I1255
sS'Bullock cart'
p1469
I2795
sS'Same-sex marriage in Spain'
p1470
I4158
sS'Belly chain'
p1471
I3492
sS'Sombrero de catite'
p1472
I4502
sS'Ancient Greece'
p1473
I698
sS'Churidar'
p1474
I3287
sS'Ballet boot'
p1475
I2632
sS'Nabedrennik'
p1476
I2211
sS'Tichel'
p1477
I3074
sS'Retail'
p1478
I924
sS'Geotextile'
p1479
I2388
sS'Lehenga Style Saree'
p1480
I4411
sS'2012 Summer Olympics'
p1481
I2349
sS'Paris Fashion Week'
p1482
I3598
sS'Artistic Dress movement'
p1483
I2343
sS'Bow tie'
p1484
I1299
sS'Burundi'
p1485
I4258
sS'Kosovo'
p1486
I289
sS'Pince-nez'
p1487
I993
sS'Neck ring'
p1488
I3245
sS'Kurdistan'
p1489
I735
sS'Choga'
p1490
I4773
sS'Lebanon'
p1491
I297
sS'Mettupalayam, Coimbatore'
p1492
I3131
sS'Indo-Greek Kingdom'
p1493
I1602
sS'Brahma Purana'
p1494
I2793
sS'Finger wave'
p1495
I1663
sS'Calendering'
p1496
I1755
sS'Natural fiber'
p1497
I2549
sS'Tengura'
p1498
I3846
sS'Hourglass corset'
p1499
I2826
sS'Senufo Bird'
p1500
I2648
sS'Marriageable age'
p1501
I1208
sS'Flight suit'
p1502
I2116
sS'Umbrella hat'
p1503
I4728
sS'Same-sex marriage in Brazil'
p1504
I2742
sS'Sports Illustrated Swimsuit Issue'
p1505
I1654
sS'The Church of Jesus Christ of Latter-day Saints'
p1506
I147
sS'Organic clothing'
p1507
I3789
sS'Perry Ellis'
p1508
I2396
sS'Drape suit'
p1509
I1882
sS'Nursing bra'
p1510
I1773
sS'Tassel'
p1511
I922
sS'Ballerina skirt'
p1512
I2066
sS'The Combination (film)'
p1513
I4279
sS'Hip hop fashion'
p1514
I1441
sS'Grecian bend'
p1515
I2568
sS'YouTube'
p1516
I2744
sS'Balaclava (clothing)'
p1517
I856
sS'Hanbok'
p1518
I2033
sS'Bill Maher'
p1519
I1073
sS'Prada'
p1520
I1543
sS'High-low skirt'
p1521
I4836
sS'Bucks point lace'
p1522
I4007
sS'Welsh hat'
p1523
I1341
sS'Narakasura'
p1524
I2618
sS'Great helm'
p1525
I2558
sS'Peter Paul Rubens'
p1526
I4252
sS'Traditional clothing of Kosovo'
p1527
I4931
sS'Organ shoes'
p1528
I2040
sS'List of World War II conferences'
p1529
I2184
sS'Topshop'
p1530
I1711
sS'Recessional hymn'
p1531
I4400
sS'Chugha'
p1532
I4864
sS'News conference'
p1533
I4574
sS'Hijab by country'
p1534
I4271
sS'Polytheism'
p1535
I4112
sS'Levi Strauss'
p1536
I1198
sS'Sick building syndrome'
p1537
I1262
sS'Mac Miller'
p1538
I4793
sS'Calendar of saints'
p1539
I920
sS'Guru Purnima'
p1540
I1795
sS'Life (magazine)'
p1541
I940
sS'Devilock'
p1542
I4430
sS'Chanel'
p1543
I1570
sS'Size zero'
p1544
I2236
sS'Jyeshtha (month)'
p1545
I1805
sS'Kozhushanka'
p1546
I3913
sS'Mawlid'
p1547
I1934
sS'Bulletproof vest'
p1548
I814
sS'Araimudi'
p1549
I4840
sS'Kabney'
p1550
I2527
sS'Chapan'
p1551
I3205
sS'Emilio Pucci'
p1552
I1880
sS'Archducal hat'
p1553
I2200
sS'M-1965 field jacket'
p1554
I2519
sS'Hanuman'
p1555
I768
sS'George Armstrong Custer'
p1556
I774
sS'Barong Tagalog'
p1557
I2018
sS'Jet (lignite)'
p1558
I1444
sS'Category:2010s fashion'
p1559
I4439
sS'Serbian traditional clothing'
p1560
I2843
sS'Sportswear (activewear)'
p1561
I41
sS'Same-sex marriage in the Netherlands'
p1562
I1055
sS'Nancy Reagan'
p1563
I343
sS'Tanggeon'
p1564
I4135
sS'Vanity Fair (magazines)'
p1565
I3123
sS'Culture of Assam'
p1566
I3476
sS'February 29'
p1567
I202
sS'Glossary of textile manufacturing'
p1568
I3316
sS'Jeans'
p1569
I670
sS'Side cap'
p1570
I2170
sS'Ouargla'
p1571
I2830
sS'Nezela'
p1572
I3448
sS'Blackwork'
p1573
I739
sS'Uniforms of the American Civil War'
p1574
I4709
sS'Pushan'
p1575
I2204
sS'Persian clothing'
p1576
I3249
sS'Bridal shower'
p1577
I2572
sS'Portwest'
p1578
I4977
sS'Sadie Hawkins dance'
p1579
I1992
sS'Shravana'
p1580
I2068
sS'Islam'
p1581
I3160
sS'Chandni'
p1582
I2855
sS'Dress socks'
p1583
I3162
sS'Twaron'
p1584
I1319
sS'Dobok'
p1585
I2029
sS'Paithani'
p1586
I2524
sS'Gazette du Bon Ton'
p1587
I3366
sS'Pea coat'
p1588
I1996
sS'Rio de Janeiro'
p1589
I418
sS'Hypercolor'
p1590
I1792
sS'Chaand Raat'
p1591
I1889
sS'EHarmony'
p1592
I2120
sS'Buffalo coat'
p1593
I4718
sS'Perth'
p1594
I395
sS'Facing (sewing)'
p1595
I4563
sS'Project Runway Canada (season 1)'
p1596
I4213
sS'Jorabs'
p1597
I4659
sS'Byzantine dress'
p1598
I2496
sS'Bolivia'
p1599
I106
sS'Indigenous peoples in Brazil'
p1600
I656
sS'List of festivals in Turkey'
p1601
I2584
sS'Ghana'
p1602
I213
sS'Saudi Arabia'
p1603
I1206
sS'M-1951 field jacket'
p1604
I4340
sS'Social impact of thong underwear'
p1605
I3856
sS'Hipster (contemporary subculture)'
p1606
I3411
sS'Delhi'
p1607
I555
sS'Guatemala'
p1608
I3984
sS'Wine country casual'
p1609
I4554
sS'Kubi bukuro'
p1610
I3329
sS'Economy of India'
p1611
I2035
sS'Magoja'
p1612
I4182
sS'Xingu River'
p1613
I536
sS'Nine West'
p1614
I3591
sS'Etruscan language'
p1615
I188
sS'Veil'
p1616
I707
sS'Peignoir'
p1617
I1973
sS'Pakeezah'
p1618
I2861
sS'World War I'
p1619
I2954
sS'Arab states of the Persian Gulf'
p1620
I2626
sS'John the Baptist'
p1621
I277
sS'Shahmina'
p1622
I4553
sS'Finishing (textiles)'
p1623
I4073
sS'Ray-Ban'
p1624
I1418
sS'East India'
p1625
I2806
sS'Mariachi'
p1626
I1222
sS'Madhuri Dixit'
p1627
I328
sS'Cape'
p1628
I4991
sS'Rome'
p1629
I410
sS'Zoster (costume)'
p1630
I4289
sS'Normandy'
p1631
I364
sS'Lorgnette'
p1632
I2500
sS'Pin-back button'
p1633
I4631
sS'Chullo'
p1634
I3406
sS'Council of Fashion Designers of America'
p1635
I3544
sS'Groomsman'
p1636
I1797
sS'Glasses'
p1637
I726
sS'Clothing in India'
p1638
I26
sS'Gautama Buddha'
p1639
I97
sS'Neckwear'
p1640
I3530
sS'Baleen'
p1641
I1021
sS'Azealia Banks'
p1642
I4761
sS'Headscarf'
p1643
I2046
sS'France'
p1644
I3134
sS'Gate crashing'
p1645
I4026
sS'Blake Edwards'
p1646
I546
sS'Waders (footwear)'
p1647
I2990
sS'Lesotho'
p1648
I298
sS'Kiondo'
p1649
I2852
sS'Ottavio Missoni'
p1650
I3555
sS'List of festivals in Pakistan'
p1651
I4711
sS'Category:Indian fashion'
p1652
I3795
sS'Kenya'
p1653
I944
sS'Right to clothing'
p1654
I4846
sS'Parsi'
p1655
I591
sS'Milk'
p1656
I327
sS'Supra (brand)'
p1657
I5000
sS'Jean Patou'
p1658
I1571
sS'MS Skania'
p1659
I4298
sS'The Bachelor (U.S. TV series)'
p1660
I905
sS'Holiday heart syndrome'
p1661
I2422
sS'Tie chain'
p1662
I4177
sS'Student cap'
p1663
I2644
sS'Eritrea'
p1664
I3985
sS'Phormium'
p1665
I4893
sS'Service dress'
p1666
I3110
sS'Merriam-Webster'
p1667
I1065
sS'Dupioni'
p1668
I4510
sS'Jodhpur boot'
p1669
I4176
sS'Fashion entrepreneur'
p1670
I4558
sS'Bermuda'
p1671
I105
sS'Peru'
p1672
I890
sS'L. Sprague de Camp'
p1673
I594
sS'Habesha kemis'
p1674
I4071
sS'Arthur Perigal'
p1675
I4962
sS'Low-rise pants'
p1676
I2672
sS'Gyaru'
p1677
I2516
sS'Benin'
p1678
I104
sS'Spectator shoe'
p1679
I2761
sS'Vaquero'
p1680
I877
sS'Engageante'
p1681
I2704
sS'Doctoral hat'
p1682
I4049
sS'Michigan'
p1683
I308
sS'Sailor cap'
p1684
I4396
sS'Wikipedia:WikiProject Novels'
p1685
I773
sS'Dreadlocks'
p1686
I931
sS'Shashthi (day)'
p1687
I3772
sS'Pocket'
p1688
I1278
sS'Afghan (blanket)'
p1689
I2770
sS'Ellora Caves'
p1690
I1263
sS'Same-sex marriage in Canada'
p1691
I1057
sS'Urban culture'
p1692
I2402
sS'Chap boot'
p1693
I4370
sS'Nunavut'
p1694
I3260
sS'Kipper tie'
p1695
I3997
sS'1907 Sydney bathing costume protests'
p1696
I4742
sS'Catechism of the Catholic Church'
p1697
I962
sS'Chabad'
p1698
I866
sS'Yom Kippur War'
p1699
I537
sS'Bandhani'
p1700
I2488
sS'Uwagi'
p1701
I3399
sS'Glossary of dyeing terms'
p1702
I4638
sS'Prinsjesdag'
p1703
I3263
sS'Filet crochet'
p1704
I640
sS'Batik'
p1705
I1225
sS'Tankini'
p1706
I1767
sS'Lifted Research Group'
p1707
I3043
sS'Glossary of sewing terms'
p1708
I4531
sS'Chuppah'
p1709
I2156
sS'Aztec clothing'
p1710
I3670
sS'Book of Love (1990 film)'
p1711
I3420
sS'Maharashtra'
p1712
I337
sS'Tatting'
p1713
I494
sS'Maithuna'
p1714
I3641
sS'Rekel'
p1715
I3141
sS'Walking'
p1716
I527
sS'Yurok people'
p1717
I3107
sS'Shoulder pads (fashion)'
p1718
I3597
sS'East Asia'
p1719
I4157
sS'List of water sports'
p1720
I1224
sS'Doublet (clothing)'
p1721
I2233
sS'Timeline of clothing and textiles technology'
p1722
I677
sS'Saint Thomas Christians'
p1723
I1060
sS'Senegal'
p1724
I444
sS'Carrie (2002 film)'
p1725
I3401
sS'Daenggi'
p1726
I4160
sS'Cocktail party'
p1727
I1684
sS'Hungary'
p1728
I228
sS'Military uniform'
p1729
I1733
sS'Brazil'
p1730
I94
sS'Cycling glove'
p1731
I2567
sS'Mitznefet (Israeli military)'
p1732
I4032
sS'Rastacap'
p1733
I1940
sS'Same-sex marriage in South Africa'
p1734
I1525
sS'Earmuffs'
p1735
I1857
sS'Hand knitting'
p1736
I3891
sS'Wearable art'
p1737
I1315
sS'Great Depression'
p1738
I4116
sS'Romeo and Juliet'
p1739
I417
sS'Resist dyeing'
p1740
I3452
sS'Clothing sizes'
p1741
I3248
sS'Calfskin'
p1742
I3736
sS'G-string'
p1743
I1203
sS'Chima (clothing)'
p1744
I4272
sS'Combing'
p1745
I3466
sS'Water Music (Handel)'
p1746
I5005
sS'Hindu calendar'
p1747
I975
sS'Mob cap'
p1748
I2062
sS'Joseph (patriarch)'
p1749
I929
sS'Sundress'
p1750
I3511
sS'Human sexual activity'
p1751
I245
sS'Cornette'
p1752
I3407
sS'Annie Oakley'
p1753
I1253
sS'Ottoman (textile)'
p1754
I3972
sS'Camisole'
p1755
I1976
sS'Biretta'
p1756
I1382
sS'Indian philosophy'
p1757
I1151
sS'Nap (textile)'
p1758
I4010
sS'Chantilly lace'
p1759
I2224
sS'Conflict of marriage laws'
p1760
I2657
sS'Pantyhose for men'
p1761
I3278
sS'Category:Lists of festivals in Pakistan'
p1762
I5047
sS'Fort Apache (film)'
p1763
I2733
sS'Artificial leather'
p1764
I2283
sS'Divorce party'
p1765
I3967
sS'Falling buffe'
p1766
I4435
sS'Hoxton knot'
p1767
I4790
sS'Bhau-beej'
p1768
I1851
sS'Knowledge transfer'
p1769
I1020
sS'Surcoat'
p1770
I667
sS'Jump smock'
p1771
I4186
sS'Radhastami'
p1772
I2694
sS'Falgun'
p1773
I2161
sS'Ripstop'
p1774
I3995
sS'Jeggings'
p1775
I4453
sS'Category:Fetish clothing'
p1776
I1796
sS'Julian calendar'
p1777
I266
sS'Category:Engagement'
p1778
I4606
sS'Fake fur'
p1779
I2071
sS'Papoose'
p1780
I2571
sS'Alaska Natives'
p1781
I1411
sS'Heelys'
p1782
I2534
sS'American football'
p1783
I4085
sS'Abitur'
p1784
I1000
sS'Lace wig'
p1785
I4431
sS'Pohela Boishakh'
p1786
I1474
sS'Square academic cap'
p1787
I1156
sS'Thigh-high boots'
p1788
I1553
sS'Needlepoint'
p1789
I888
sS'Lakme Fashion Week'
p1790
I4829
sS'Category:Cultural trends'
p1791
I3558
sS'Rubber pants'
p1792
I3182
sS'Topping out'
p1793
I2408
sS'Cufflink'
p1794
I1841
sS'Rogatywka'
p1795
I2309
sS'Modern girl'
p1796
I2872
sS'Barretina'
p1797
I1344
sS'Morning dress'
p1798
I30
sS'Arthur Wellesley, 1st Duke of Wellington'
p1799
I177
sS'Same-sex marriage in Portugal'
p1800
I2822
sS'Shitagi'
p1801
I2027
sS'Sears'
p1802
I1100
sS'Byzantine silk'
p1803
I4628
sS'North West England'
p1804
I644
sS'Morocco leather'
p1805
I3704
sS'Metal corset'
p1806
I3771
sS'Nicaragua'
p1807
I355
sS'Computer-assisted telephone interviewing'
p1808
I1937
sS'Unitard'
p1809
I828
sS'Teenage Dirtbag'
p1810
I2994
sS'Traditional Chinese holidays'
p1811
I1343
sS'Matriculation'
p1812
I1226
sS'Radha'
p1813
I767
sS'Torc'
p1814
I1054
sS'Eri silk'
p1815
I4244
sS'Polygamy'
p1816
I398
sS'Alb'
p1817
I1372
sS'Viscose'
p1818
I863
sS'Shiva'
p1819
I470
sS'Polka dot'
p1820
I1975
sS'Dropping Out age'
p1821
I3631
sS'Couturier'
p1822
I1604
sS'Cyndi Lauper'
p1823
I744
sS'Pachuco'
p1824
I1322
sS'Kumbh Mela'
p1825
I1265
sS'Venezuela'
p1826
I515
sS'Spaghetti Western'
p1827
I474
sS'Sirwal'
p1828
I3758
sS'Lapel'
p1829
I2823
sS'Khaki'
p1830
I954
sS"Women's clothing in China"
p1831
I4725
sS'Fur clothing'
p1832
I2452
sS'Manish Malhotra'
p1833
I2929
sS'Jama (coat)'
p1834
I5028
sS'Philippa of England'
p1835
I3310
sS'Orarion'
p1836
I1875
sS'Hachimaki'
p1837
I1753
sS'Hobble skirt'
p1838
I1846
sS'Spangenhelm'
p1839
I2894
sS'Zonnar'
p1840
I4917
sS'Semi-casual'
p1841
I2364
sS'Kazakhstan'
p1842
I280
sS'Christian Dior SE'
p1843
I1946
sS"Miner's apron"
p1844
I4888
sS'Jelly shoes'
p1845
I2749
sS'Shemini Atzeret'
p1846
I601
sS'Mitzvah'
p1847
I1022
sS'Costume jewelry'
p1848
I141
sS'Baseball cap'
p1849
I1298
sS'Monk shoe'
p1850
I4136
sS'Himachal Pradesh'
p1851
I242
sS'Lyocell'
p1852
I1393
sS'Category:Canadian fashion'
p1853
I3565
sS'Police duty belt'
p1854
I3681
sS'Nicolas Trigault'
p1855
I3327
sS'Senninbari'
p1856
I2177
sS'Phra Kiao'
p1857
I3649
sS'Izaar'
p1858
I4734
sS'Webbed belt'
p1859
I3730
sS'Shirt stud'
p1860
I3489
sS'Mandarin square'
p1861
I1498
sS'Australian work boot'
p1862
I2145
sS'Illyrian type helmet'
p1863
I3926
sS'Gabardine'
p1864
I1555
sS'Yasser Arafat'
p1865
I538
sS'Category:18th-century fashion'
p1866
I4819
sS'Po (clothing)'
p1867
I4149
sS'Nosegay'
p1868
I2485
sS'Geoffrey Chaucer'
p1869
I224
sS'Quran'
p1870
I547
sS'Southpole (clothing)'
p1871
I3425
sS'Crocheted lace'
p1872
I855
sS'Hangaroc'
p1873
I4364
sS'Avatar (computing)'
p1874
I1682
sS'Heel (shoe)'
p1875
I2330
sS'Carmagnole'
p1876
I1897
sS'Chancery (medieval office)'
p1877
I4421
sS'Hi-top fade'
p1878
I2307
sS'International Best Dressed List'
p1879
I2941
sS'Joey Essex'
p1880
I4784
sS'Polo shirt'
p1881
I1764
sS'Adolescence'
p1882
I740
sS'French Revolution'
p1883
I204
sS"Pilgrim's hat"
p1884
I3312
sS'Academic dress of the University of London'
p1885
I3346
sS'Surtout'
p1886
I3707
sS'Hold-ups'
p1887
I3628
sS'Sombrero'
p1888
I1396
sS'Prom queen'
p1889
I2883
sS'Ancient Rome'
p1890
I1406
sS'Liberty spikes'
p1891
I2171
sS'Driglam namzha'
p1892
I2448
sS'Court dress'
p1893
I1185
sS'Ethiopia'
p1894
I941
sS'Bermuda shorts'
p1895
I2858
sS'Maria Clara gown'
p1896
I4481
sS'Business Casual (Chromeo album)'
p1897
I4547
sS'Kent'
p1898
I282
sS'Track spikes'
p1899
I2050
sS'Public holidays in Japan'
p1900
I1947
sS'Mantle (vesture)'
p1901
I800
sS'Ponytail'
p1902
I1291
sS'Afghan clothing'
p1903
I3206
sS'Carrie (1976 film)'
p1904
I2973
sS'Woman'
p1905
I525
sS'Birthday problem'
p1906
I724
sS'Same-sex marriage in Luxembourg'
p1907
I2085
sS'Karakul (hat)'
p1908
I2970
sS'Russian boot'
p1909
I4549
sS'Farshi Pajama'
p1910
I3728
sS'Republic of Ireland'
p1911
I252
sS'Trim (sewing)'
p1912
I2676
sS'Lavalier'
p1913
I2747
sS'Asura'
p1914
I760
sS'Inuit'
p1915
I3907
sS'Category:Indian clothing'
p1916
I2969
sS'Anglo-Saxon dress'
p1917
I3750
sS'Caubeen'
p1918
I3167
sS'Kerala'
p1919
I2895
sS'Chikan (embroidery)'
p1920
I2611
sS'North Africa'
p1921
I363
sS'Template:Hats'
p1922
I4936
sS'Pasiking'
p1923
I4560
sS'High-technology swimwear fabric'
p1924
I1999
sS'Speedo'
p1925
I1041
sS'Playsuit (lingerie)'
p1926
I3810
sS'Grommet'
p1927
I1288
sS'Tutu (clothing)'
p1928
I1626
sS'Wedding music'
p1929
I1983
sS'Undercut (hairstyle)'
p1930
I4858
sS'Burnous'
p1931
I2583
sS'Magazine'
p1932
I339
sS'Broderie anglaise'
p1933
I2280
sS'File:NewBritainUnderwearWashingDirections.jpg'
p1934
I4031
sS'Songkok'
p1935
I3322
sS'Bycoket'
p1936
I2940
sS'Rakusu'
p1937
I3688
sS'Derek Lam'
p1938
I3303
sS'Fully fashioned stockings'
p1939
I3609
sS'Green wedding'
p1940
I4464
sS'Admiralty'
p1941
I88
sS'La Senza'
p1942
I3767
sS'Indian School of Business'
p1943
I2196
sS'Hesiod'
p1944
I236
sS'Political T-shirt'
p1945
I3168
sS'Tatami (Japanese armour)'
p1946
I4461
sS'Juvenile Protective Association'
p1947
I3782
sS'Letterman (sports)'
p1948
I1781
sS'Diwali'
p1949
I933
sS'Cravat'
p1950
I1335
sS'Sindhi dress'
p1951
I5002
sS'Climbing shoe'
p1952
I1144
sS'Deely bobber'
p1953
I2541
sS"New Year's Day"
p1954
I861
sS'Mundu'
p1955
I1679
sS'Tupenu'
p1956
I2306
sS'Yves Saint Laurent (designer)'
p1957
I796
sS'Canterbury cap'
p1958
I3135
sS'List of festivals in Romania'
p1959
I3585
sS'Chaps'
p1960
I1593
sS'Tabard'
p1961
I662
sS'Georgette (fabric)'
p1962
I4496
sS'Outlet store'
p1963
I2722
sS'Thermoregulation'
p1964
I1239
sS'Monocle'
p1965
I1270
sS'Pigtail'
p1966
I2086
sS'Shetland sheep'
p1967
I3654
sS'Africa'
p1968
I3052
sS'Splittertarnmuster'
p1969
I4015
sS'Mary Ping'
p1970
I4288
sS'John B. Stetson Company'
p1971
I3586
sS'Mongols'
p1972
I311
sS'Mackintosh'
p1973
I832
sS'List of harvest festivals'
p1974
I3519
sS'Weighted silk'
p1975
I4533
sS'Traditional dyes of the Scottish Highlands'
p1976
I2554
sS'Toe socks'
p1977
I2423
sS'Neiman Marcus Fashion Award'
p1978
I4292
sS'Guru Nanak Gurpurab'
p1979
I2675
sS'Dhoti'
p1980
I1349
sS'Hall v Durham Catholic School Board'
p1981
I1230
sS'Plush'
p1982
I1277
sS'Atilla (clothing)'
p1983
I1462
sS'George du Maurier'
p1984
I979
sS'Riha (garment)'
p1985
I4000
sS'Category:American clothing'
p1986
I3563
sS'Hime cut'
p1987
I3204
sS'Zephyr cloth'
p1988
I3022
sS'Cellulose'
p1989
I159
sS'Chinese zodiac'
p1990
I4245
sS'Jutti'
p1991
I2421
sS'Double cloth'
p1992
I2000
sS'Academic scarf'
p1993
I1724
sS'Berlin'
p1994
I92
sS'Culture of the Native Hawaiians'
p1995
I2100
sS'Bart Got a Room'
p1996
I4027
sS'Garot'
p1997
I4047
sS'John R. Jewitt'
p1998
I3931
sS'James Laver'
p1999
I4260
sS'Over-the-knee boot'
p2000
I4785
sS'Royal Navy uniform'
p2001
I3733
sS'Bangalore'
p2002
I5001
sS'Navajo'
p2003
I2606
sS'Trench coat'
p2004
I1170
sS'Sweater vest'
p2005
I3663
sS'Category:History of clothing (Western fashion)'
p2006
I3113
sS'Travelling funfair'
p2007
I982
sS'Online diary planner'
p2008
I4490
sS'Kiekie (clothing)'
p2009
I3082
sS'Batting helmet'
p2010
I1412
sS'Bible'
p2011
I96
sS'Manilla (money)'
p2012
I3594
sS'Swedish goggles'
p2013
I3187
sS'Khrui'
p2014
I4895
sS'Broadcloth'
p2015
I3050
sS'Long hair'
p2016
I3388
sS'Human swimming'
p2017
I459
sS'Hakama'
p2018
I1008
sS'Rani Mukerji'
p2019
I1211
sS'Ritu Kumar'
p2020
I5036
sS'LGBT'
p2021
I700
sS'Roller shoe'
p2022
I3164
sS'Persian miniature'
p2023
I2550
sS'Jeogori'
p2024
I4148
sS'Tanker boot'
p2025
I2015
sS'Student boilersuit'
p2026
I2358
sS'Unitarianism'
p2027
I512
sS'Tinea cruris'
p2028
I1271
sS'Sridevi'
p2029
I2230
sS'Phragmites'
p2030
I1389
sS'Loculus (satchel)'
p2031
I2499
sS'Mother Hubbard dress'
p2032
I3083
sS'Pahlavi hat'
p2033
I4460
sS'Frederick Arthur Bridgman'
p2034
I2565
sS'Cestus'
p2035
I2008
sS'Celtic brooch'
p2036
I4566
sS'Harald Martenstein'
p2037
I3762
sS'Wiz Khalifa'
p2038
I3377
sS'Spodik'
p2039
I2011
sS'Self-fabric'
p2040
I2881
sS'Hat Act'
p2041
I2453
sS'Malaysia'
p2042
I2769
sS'Taqiyah (cap)'
p2043
I4042
sS'Jabot (neckwear)'
p2044
I3956
sS'Dress shirt'
p2045
I2298
sS'Larry Hagman'
p2046
I1164
sS'Quoit brooch'
p2047
I2384
sS'Operation Match'
p2048
I5008
sS'Gore-Tex'
p2049
I1049
sS'Tignon'
p2050
I2594
sS'Jacquard weaving'
p2051
I2030
sS'Extreme Cold Weather Clothing'
p2052
I1300
sS'Divorce'
p2053
I572
sS'Travel'
p2054
I11
sS'Delaware'
p2055
I169
sS'Undergarment'
p2056
I55
sS'Purple Mark'
p2057
I4914
sS'Cape Verde'
p2058
I4087
sS'Over-illumination'
p2059
I3024
sS'Chalcidian helmet'
p2060
I4187
sS'Asharh'
p2061
I2369
sS'Gallup (company)'
p2062
I3056
sS'Matchcoat'
p2063
I5041
sS'Christmas carol'
p2064
I827
sS'Flamenco shoe'
p2065
I4517
sS'Apron'
p2066
I651
sS'Proenza Schouler'
p2067
I3485
sS'Sweater design'
p2068
I3029
sS'Category:Philosophy of love'
p2069
I4426
sS'Fishnet'
p2070
I1732
sS'Bus'
p2071
I116
sS'Sticharion'
p2072
I1874
sS'Designer label'
p2073
I3330
sS'Sequin'
p2074
I1632
sS'Sardinia'
p2075
I477
sS'Brothel creeper'
p2076
I2376
sS'Frosty the Snowman'
p2077
I1777
sS'Rationale (clothing)'
p2078
I3393
sS'Mangala sutra'
p2079
I2417
sS'Clothing laws by country'
p2080
I2943
sS'Non-resident Indian and person of Indian origin'
p2081
I4494
sS'Halakha'
p2082
I238
sS'Lookbook'
p2083
I4376
sS'Audrey Hepburn'
p2084
I632
sS'Boston Fashion Week'
p2085
I4961
sS'Romance (love)'
p2086
I1108
sS'Marie Louise, Duchess of Parma'
p2087
I690
sS'Undershirt'
p2088
I2438
sS'Plastic clothing'
p2089
I3876
sS'Sikh chola'
p2090
I4670
sS'Glove'
p2091
I896
sS'Afro-Caribbean'
p2092
I2073
sS'Fashion in the United States'
p2093
I3888
sS'Huarache (running shoe)'
p2094
I4809
sS'Stump sock'
p2095
I4246
sS'Meeting point'
p2096
I3569
sS'Maya textiles'
p2097
I3256
sS'Elevator shoes'
p2098
I1469
sS'Stayclip'
p2099
I3500
sS'Wellington Sevens'
p2100
I2967
sS'Vestoj'
p2101
I4951
sS'Opening ceremony'
p2102
I2896
sS'Wedding dress of Grace Kelly'
p2103
I4691
sS'Smock Parachutist DPM'
p2104
I3350
sS'Dilbert'
p2105
I173
sS'Petticoat breeches'
p2106
I2480
sS'Stirrup pants'
p2107
I4750
sS'Same-sex marriage in Denmark'
p2108
I1852
sS'Baptismal clothing'
p2109
I3058
sS'Derby shoe'
p2110
I4115
sS'Fiji'
p2111
I198
sS'Aboriginal Australians'
p2112
I2574
sS'Zucchetto'
p2113
I1384
sS'Jumpsuit'
p2114
I1539
sS'Coin purse'
p2115
I3993
sS'Hoop skirt'
p2116
I2337
sS'Venice'
p2117
I518
sS'J. R. Ewing'
p2118
I1853
sS'The Lord of the Rings (film series)'
p2119
I1275
sS"Infant's binder"
p2120
I2948
sS'Pinking shears'
p2121
I1032
sS'Sennit'
p2122
I2512
sS'Buckle'
p2123
I1598
sS'Skufia'
p2124
I2296
sS'Fernand Braudel'
p2125
I1106
sS'Factory'
p2126
I872
sS'Alasho'
p2127
I4003
sS'Trench boot'
p2128
I3897
sS'Baju Melayu'
p2129
I3091
sS'Fashion doll'
p2130
I2662
sS'Dimity'
p2131
I2576
sS'Category:National symbols'
p2132
I2194
sS'Judaism'
p2133
I265
sS'Wool'
p2134
I559
sS'Reimiro'
p2135
I3930
sS'Rangoli'
p2136
I1484
sS'Shower cap'
p2137
I3757
sS'Israel'
p2138
I3478
sS'Approach shoe'
p2139
I3924
sS'Top (clothing)'
p2140
I3868
sS'Hemline index'
p2141
I4223
sS'Khilafat Day'
p2142
I4844
sS'Daniel Craig'
p2143
I3892
sS'Designer clothing'
p2144
I3046
sS'List of holidays by country'
p2145
I1782
sS'Wikipedia:Wikidata'
p2146
I4904
sS'Opera coat'
p2147
I2533
sS'Banyan (clothing)'
p2148
I2914
sS'Leather jacket'
p2149
I4394
sS'Burka (Caucasus)'
p2150
I2243
sS'Bhakti'
p2151
I907
sS'Choli'
p2152
I2612
sS'Sandeep Khosla'
p2153
I4988
sS'Friendship bracelet'
p2154
I3075
sS'Deel (clothing)'
p2155
I3786
sS'War bonnet'
p2156
I2504
sS'Bangalore Fashion Week'
p2157
I4710
sS'Santa Claus Is Coming to Town'
p2158
I2069
sS'Zierscheibe'
p2159
I3725
sS'Lockstitch'
p2160
I959
sS'Court uniform and dress'
p2161
I4568
sS'Phrygian cap'
p2162
I1181
sS'Capulana'
p2163
I3272
sS'Cucumber sandwich'
p2164
I1527
sS'Wikipedia:External links'
p2165
I1154
sS'Parent-teacher interview'
p2166
I3848
sS'Opinga'
p2167
I4581
sS'Lillian Moller Gilbreth'
p2168
I570
sS'Flower girl'
p2169
I4602
sS'Varanasi'
p2170
I4908
sS'Barcelona'
p2171
I125
sS'Drill (fabric)'
p2172
I1197
sS'Wedding dress of Lady Diana Spencer'
p2173
I4688
sS'ABC News'
p2174
I1155
sS'1950 in literature'
p2175
I948
sS'Arranged marriage'
p2176
I4472
sS'The Sunday Mail (Brisbane)'
p2177
I2424
sS'Cleat (shoe)'
p2178
I3639
sS'Informal attire'
p2179
I40
sS'Mat'
p2180
I1420
sS'Poaceae'
p2181
I668
sS'Nuit Blanche'
p2182
I3274
sS'Pippa Middleton'
p2183
I4630
sS'Anders Zorn'
p2184
I925
sS'Uniforms of the Singapore Police Force'
p2185
I4002
sS'Neil Selkirk'
p2186
I4198
sS'Elisha Otis'
p2187
I1252
sS'Hairdresser'
p2188
I1933
sS'List of festivals in Bangladesh'
p2189
I4797
sS'Ramadan'
p2190
I423
sS'Late Roman ridge helmet'
p2191
I4636
sS'Christmas jumper'
p2192
I4913
sS'United Kingdom'
p2193
I499
sS'Ice skate'
p2194
I693
sS'Police uniforms and equipment in the United Kingdom'
p2195
I3147
sS'Shadbelly'
p2196
I2623
sS'Ready-to-wear'
p2197
I1029
sS'Jeep cap'
p2198
I3599
sS'Casual'
p2199
I36
sS'Roxy Jacenko'
p2200
I4949
sS'White House'
p2201
I524
sS'Telugu language'
p2202
I568
sS'Polos'
p2203
I4519
sS'Paambadam'
p2204
I4667
sS'Imperial yellow jacket'
p2205
I4140
sS'Rubia tinctorum'
p2206
I4523
sS'Sharia'
p2207
I469
sS'Phillip Lim'
p2208
I3894
sS'Boxing'
p2209
I119
sS'Irish lace'
p2210
I4422
sS'Sindhi cap'
p2211
I4622
sS'Smock-frock'
p2212
I2341
sS'The Gambia'
p2213
I696
sS'Fortaleza'
p2214
I203
sS'Category:American fashion'
p2215
I3557
sS'Al Mukalla'
p2216
I2445
sS'Dhaka topi'
p2217
I3487
sS'Suit (clothing)'
p2218
I1189
sS'Senior management'
p2219
I1107
sS'Blonde lace'
p2220
I4001
sS'Royal Air Force uniform'
p2221
I3653
sS'Hatpin'
p2222
I2462
sS'Vasant Panchami'
p2223
I2887
sS'Bondage corset'
p2224
I2436
sS'Formal trousers'
p2225
I4330
sS'Tim Gunn'
p2226
I2880
sS'Coir'
p2227
I1030
sS'Bread and Butter tradeshow'
p2228
I4987
sS'Disruptive Pattern Camouflage Uniform'
p2229
I2764
sS'Shigmo'
p2230
I2126
sS'Same-sex marriage in New Zealand'
p2231
I2702
sS'Susan Ford'
p2232
I3264
sS'History of the bikini'
p2233
I4250
sS'Khulna'
p2234
I1716
sS'Contemporary Western wedding dress'
p2235
I4417
sS'Maureen Dowd'
p2236
I1132
sS'San Diego Comic-Con International'
p2237
I1636
sS'Ninja'
p2238
I600
sS'Shoelaces'
p2239
I1235
sS'Ball dress'
p2240
I4040
sS'Glove (ice hockey)'
p2241
I1891
sS'Richard Wagner'
p2242
I409
sS'Abaniko'
p2243
I3632
sS'Nuremberg'
p2244
I351
sS'Town meeting'
p2245
I1223
sS'Bathing dress'
p2246
I4484
sS'Category:High schools and secondary schools'
p2247
I3680
sS'Llanero'
p2248
I1380
sS'Location (geography)'
p2249
I2431
sS'Morion (helmet)'
p2250
I3470
sS'Turnshoe'
p2251
I3540
sS'Category:Swimming equipment'
p2252
I3536
sS'Nile'
p2253
I347
sS'Jipsin'
p2254
I4169
sS'Vogue (magazine)'
p2255
I1191
sS'Torchon lace'
p2256
I4009
sS'Percale'
p2257
I2347
sS'Sericin'
p2258
I4471
sS'Korean Wave'
p2259
I2383
sS'Featherstitch'
p2260
I3720
sS'Kazakhs'
p2261
I996
sS'Christian'
p2262
I4039
sS'Tote bag'
p2263
I4069
sS'Pointed hat'
p2264
I2444
sS'Lace'
p2265
I751
sS'Uniforms of the Imperial Japanese Army'
p2266
I2176
sS'Robe de style'
p2267
I3181
sS'Brogue shoe'
p2268
I2426
sS'Groves classification system'
p2269
I4576
sS'List of Korean clothing'
p2270
I4275
sS'Ahmadiyya'
p2271
I4463
sS'Kuta (clothing)'
p2272
I3447
sS'Puri'
p2273
I1965
sS'Equality before the law'
p2274
I2738
sS'Khaki drill'
p2275
I4020
sS'J. C. Leyendecker'
p2276
I2386
sS'University of California Press'
p2277
I2395
sS'Marriage in Japan'
p2278
I4449
sS"Victoria's Secret"
p2279
I4303
sS'Kofia (hat)'
p2280
I3979
sS'London'
p2281
I301
sS'Shoe'
p2282
I440
sS'Category:Types of travel'
p2283
I4338
sS'Oriental Orthodoxy'
p2284
I4253
sS'Man'
p2285
I3914
sS'Dress'
p2286
I49
sS'Sbai'
p2287
I4393
sS'Isiagu'
p2288
I4038
sS'Yash Chopra'
p2289
I1630
sS'Calgary Stampede'
p2290
I788
sS'Manish Arora'
p2291
I3529
sS'Rang Panchami'
p2292
I5006
sS'Black tie'
p2293
I567
sS'Somalis'
p2294
I2067
sS'Veer-Zaara'
p2295
I1894
sS'Saint Lucia'
p2296
I442
sS'Sankranti'
p2297
I1490
sS'Gianni Versace'
p2298
I1157
sS'Trieste'
p2299
I664
sS'Same-sex marriage in Sweden'
p2300
I3213
sS'Bases (fashion)'
p2301
I3347
sS'Somalia'
p2302
I447
sS'Blind Date (U.S. TV series)'
p2303
I2780
sS'Camp shirt'
p2304
I3647
sS'Kolkata'
p2305
I613
sS'Channel View Publications'
p2306
I4859
sS'Monique Lhuillier'
p2307
I3170
sS'Bihar'
p2308
I1304
sS'Vienna'
p2309
I661
sS'Tiger-head shoes'
p2310
I4821
sS'Coimbatore'
p2311
I932
sS'Fiber'
p2312
I786
sS'Coronet'
p2313
I1446
sS'New Year'
p2314
I359
sS'Metallic fiber'
p2315
I2105
sS'Lap-lap'
p2316
I1969
sS'Agni'
p2317
I5037
sS'Pharaoh'
p2318
I385
sS'Mass (liturgy)'
p2319
I669
sS'Zazou'
p2320
I1879
sS'East India Company'
p2321
I585
sS'Leggings'
p2322
I1924
sS'Teejdi'
p2323
I5007
sS'Office management'
p2324
I2919
sS'Tigerstripe'
p2325
I2774
sS'Refugee'
p2326
I596
sS'Jute'
p2327
I1179
sS'Velour'
p2328
I1146
sS'Ajrak'
p2329
I3433
sS'Category:Survey methodology'
p2330
I4513
sS'Buffalo Bill'
p2331
I823
sS'Moccasin'
p2332
I2828
sS'The Clothes Show'
p2333
I3086
sS'Brazilian Carnival'
p2334
I1865
sS'Fringe (trim)'
p2335
I3827
sS'Category:Sleep'
p2336
I1687
sS'Template:Headgear'
p2337
I4966
sS'Toms Shoes'
p2338
I4209
sS'Kantha'
p2339
I1866
sS'Vietnam'
p2340
I981
sS'1935'
p2341
I542
sS'Prom Night (2008 film)'
p2342
I3709
sS"New Year's glasses"
p2343
I4807
sS'Bustle (regalia)'
p2344
I3732
sS'Koto (traditional clothing)'
p2345
I2225
sS'Faluche'
p2346
I3355
sS'Lawn cloth'
p2347
I1493
sS'Hyderabad'
p2348
I553
sS'Revolution'
p2349
I419
sS'Tie clip'
p2350
I2513
sS'Category:Tops (clothing)'
p2351
I4536
sS'Livrustkammaren'
p2352
I2789
sS'Jijel'
p2353
I2786
sS'Bowyangs'
p2354
I2144
sS'Bed jacket'
p2355
I3655
sS'Mozambique'
p2356
I319
sS'Category:Workwear'
p2357
I43
sS'Category:American culture'
p2358
I1565
sS'Beverly Hills, 90210'
p2359
I755
sS'Promised Reformer Day'
p2360
I4666
sS'Double-breasted'
p2361
I2701
sS'Square dance'
p2362
I639
sS'1880s in Western fashion'
p2363
I2815
sS'Religious clothing'
p2364
I3977
sS'Weaving'
p2365
I629
sS'Vambrace'
p2366
I1515
sS'Faroe Islands'
p2367
I3986
sS'Danielle Crittenden'
p2368
I2094
sS'Megan Young'
p2369
I3812
sS'K-pop'
p2370
I1506
sS'Rochet'
p2371
I1952
sS'Wadmal'
p2372
I4495
sS'Gather (sewing)'
p2373
I3607
sS'Wonderbra'
p2374
I1849
sS'Fashion law'
p2375
I1943
sS'Corsage (bodice)'
p2376
I2435
sS'Chatelaine (chain)'
p2377
I2202
sS'Meeting'
p2378
I15
sS'Brigandine'
p2379
I2118
sS'Mariacarla Boscono'
p2380
I2603
sS'Urmila Matondkar'
p2381
I1990
sS'Sweet sixteen (birthday)'
p2382
I2547
sS'Shpitzel'
p2383
I3125
sS'Angarkha'
p2384
I5027
sS'Waistcoat'
p2385
I1140
sS'Charm bracelet'
p2386
I2569
sS'Monkey Day'
p2387
I3821
sS'Textiles of Oaxaca'
p2388
I3904
sS'Rhinegraves'
p2389
I2481
sS'Godavari Maha Pushkaram'
p2390
I5024
sS'Midriff'
p2391
I2703
sS'Palm Sunday'
p2392
I394
sS'Cieszyn folk costume'
p2393
I4800
sS'Birthday'
p2394
I56
sS'Tie-dye'
p2395
I1440
sS'Ballerina neckline'
p2396
I3642
sS'Wedding dress of Queen Victoria'
p2397
I4690
sS'Pink Chaddi Campaign'
p2398
I4263
sS'Lollapalooza'
p2399
I1087
sS'Hwarot'
p2400
I4132
sS'Ghungroo'
p2401
I3132
sS'Henna'
p2402
I4294
sS'Tunic'
p2403
I1740
sS'Anarkali'
p2404
I2357
sS'Nafplio'
p2405
I1723
sS'Smoking jacket'
p2406
I1995
sS'Dr. Martens'
p2407
I1067
sS'United States Declaration of Independence'
p2408
I508
sS'Adventure travel'
p2409
I1917
sS'Hauberk'
p2410
I1025
sS'Namibia'
p2411
I352
sS'French Polynesia'
p2412
I199
sS'Isaac Mizrahi'
p2413
I1293
sS'Peranakan beaded slippers'
p2414
I3383
sS'Mordant'
p2415
I1113
sS'90210 (TV series)'
p2416
I3942
sS'Shoehorn'
p2417
I1856
sS'A-level'
p2418
I3571
sS'Detention (imprisonment)'
p2419
I3138
sS'Category:Travel'
p2420
I1551
sS'Category:Ceremonies'
p2421
I1834
sS"America's Next Top Model"
p2422
I1503
sS'Layette'
p2423
I2430
sS'Wristband'
p2424
I2022
sS'Dree Festival'
p2425
I4356
sS'Marriages in India'
p2426
I3365
sS'Foundation (cosmetics)'
p2427
I3703
sS'Beret'
p2428
I1367
sS'Marc Jacobs'
p2429
I2199
sS'NBA dress code'
p2430
I2610
sS'Updo'
p2431
I3244
sS'Color'
p2432
I146
sS'Gambeson'
p2433
I222
sS'List of Hanfu'
p2434
I4310
sS'Vehicle insurance'
p2435
I1449
sS'Don Ed Hardy'
p2436
I3283
sS'Edwardian era'
p2437
I764
sS'Windbreaker'
p2438
I2215
sS'Ushanka'
p2439
I1478
sS'Category:Uniforms'
p2440
I1575
sS'SO36'
p2441
I4074
sS'Episcopal sandals'
p2442
I2134
sS'Bhutan'
p2443
I2450
sS'Political alliance'
p2444
I3630
sS'Uwabaki'
p2445
I4645
sS'Humanist Society Scotland'
p2446
I2882
sS'Ringer T-shirt'
p2447
I2695
sS'Papal fanon'
p2448
I2556
sS'Bone (corsetry)'
p2449
I1713
sS'Tamil language'
p2450
I481
sS'Collar stays'
p2451
I3520
sS'Hair tie'
p2452
I3729
sS'Ruff (clothing)'
p2453
I2345
sS'Pupa'
p2454
I1122
sS'Couple interview'
p2455
I5010
sS'Pendilia'
p2456
I3836
sS'Sri Ram Sena'
p2457
I4238
sS'Fly plaid'
p2458
I3435
sS'Minor (law)'
p2459
I1116
sS'United Nations'
p2460
I503
sS'Conservative Judaism'
p2461
I153
sS'Riding boot'
p2462
I1538
sS'Hiking boot'
p2463
I2061
sS'Mary (mother of Jesus)'
p2464
I725
sS'Nilgiri Mountain Railway'
p2465
I1991
sS'Shorts'
p2466
I957
sS'Busby'
p2467
I1935
sS'Reformation Day'
p2468
I1213
sS'Template:High heels'
p2469
I3623
sS'Nyangatom people'
p2470
I3097
sS'Gregory Lekhtman'
p2471
I3807
sS'Kitty Foyle (dress)'
p2472
I3612
sS'White-collar worker'
p2473
I1050
sS'Ringlet (haircut)'
p2474
I3088
sS'Sheikh Zayed Mosque'
p2475
I3285
sS'Lakshmi'
p2476
I766
sS'Personal protective equipment'
p2477
I658
sS'Compression stockings'
p2478
I3130
sS'Tweed (cloth)'
p2479
I2803
sS'Action item'
p2480
I3100
sS'Lotus shoes'
p2481
I4162
sS'Uttar Pradesh'
p2482
I1023
sS'Pusha T'
p2483
I3146
sS'Thaipusam'
p2484
I1321
sS'Pencil skirt'
p2485
I2090
sS'Amrapali (film)'
p2486
I4478
sS'Buttonhole'
p2487
I2683
sS'Tights'
p2488
I865
sS'Jacques Fath'
p2489
I3416
sS'History of the kilt'
p2490
I2974
sS'Western Australian Museum'
p2491
I2573
sS'Human migration'
p2492
I1007
sS'Goatskin (material)'
p2493
I2598
sS'Zhiduo (clothing)'
p2494
I4312
sS'Coloured hat'
p2495
I4423
sS'Fashion and clothing in the Philippines'
p2496
I4971
sS'GI glasses'
p2497
I3341
sS'Aam Aadmi Party'
p2498
I4910
sS'Angusticlavia'
p2499
I2792
sS'Old English'
p2500
I373
sS'Donkey jacket'
p2501
I1867
sS'Roy Rogers'
p2502
I936
sS'Toe tights'
p2503
I4434
sS'Combat boot'
p2504
I1960
sS'Crusades'
p2505
I2907
sS'Quiff'
p2506
I1337
sS'La Perla (clothing)'
p2507
I4835
sS'Rabbi'
p2508
I627
sS'Argentan lace'
p2509
I2264
sS'Kasa (hat)'
p2510
I2465
sS'Mall-intercept personal interview'
p2511
I3863
sS'Ganesha'
p2512
I4128
sS'Jean-Antoine Watteau'
p2513
I1044
sS'Madhubala'
p2514
I1415
sS'Traditional Welsh costume'
p2515
I4437
sS'Miss America'
p2516
I961
sS'Lika cap'
p2517
I3989
sS'Trade fair'
p2518
I1842
sS'Braid'
p2519
I1019
sS'Bra'
p2520
I3797
sS'Water polo cap'
p2521
I3776
sS'Canada'
p2522
I3006
sS'Sabretache'
p2523
I4813
sS'Canvas'
p2524
I721
sS'Van'
p2525
I692
sS'Kamleika'
p2526
I4450
sS'Affiance (band)'
p2527
I4696
sS'Catholic school uniform'
p2528
I1885
sS'Halterneck'
p2529
I2418
sS'Cruise collection'
p2530
I4035
sS'Richard Martin (curator)'
p2531
I4286
sS'Independence Day (Pakistan)'
p2532
I3764
sS'Fashion show'
p2533
I3380
sS'Granny square'
p2534
I3854
sS'Embroidery'
p2535
I190
sS'Converse (shoe company)'
p2536
I826
sS'Skullcandy'
p2537
I3959
sS'Ming official headwear'
p2538
I1496
sS'Cameroon'
p2539
I137
sS'Christian views on marriage'
p2540
I163
sS'Bastille Day'
p2541
I111
sS'Raincoat'
p2542
I1153
sS'Pledge pin'
p2543
I2710
sS'High Street'
p2544
I1248
sS'Antique satin'
p2545
I3635
sS'Cockernonnie'
p2546
I2910
sS'Dupatta'
p2547
I2089
sS'Subligaculum'
p2548
I3348
sS"A Room of One's Own"
p2549
I1640
sS'Caribbean Examinations Council'
p2550
I2302
sS'Polity (publisher)'
p2551
I3693
sS'Ballroom dance'
p2552
I90
sS'Hair straightening'
p2553
I3816
sS'Tartan'
p2554
I1205
sS'History of suits'
p2555
I4108
sS'Shu Qi'
p2556
I1701
sS'Headband'
p2557
I2508
sS'South American fashion'
p2558
I3230
sS'Dorothy Shaver'
p2559
I4284
sS'Diaper'
p2560
I649
sS'Pile weave'
p2561
I2729
sS'Scouting'
p2562
I456
sS'Liqui liqui'
p2563
I4021
sS'Augustus, Elector of Saxony'
p2564
I2888
sS'Odia people'
p2565
I3031
sS'1830s in Western fashion'
p2566
I1819
sS'Resort wear'
p2567
I3109
sS'Back to the Future'
p2568
I583
sS'Alaska'
p2569
I67
sS'Category:History of clothing (Europe)'
p2570
I3111
sS'Shoe size'
p2571
I1761
sS'Lady Gabriella Windsor'
p2572
I2962
sS'Cassock'
p2573
I1171
sS'Soho'
p2574
I571
sS'Rugby shirt'
p2575
I1303
sS'Kanzu'
p2576
I4342
sS'Diplomatic mission'
p2577
I182
sS'Perak (headdress)'
p2578
I4408
sS'Mark Wahlberg'
p2579
I3234
sS'Dutch language'
p2580
I4180
sS'Cervelliere'
p2581
I1557
sS'Fashion design'
p2582
I3604
sS'Capotain'
p2583
I3311
sS'Boilersuit'
p2584
I1930
sS'Spool heel'
p2585
I3397
sS'Kartikeya'
p2586
I4652
sS'Arabs'
p2587
I87
sS'Kilt'
p2588
I287
sS'Anti-fashion'
p2589
I4170
sS'Ring size'
p2590
I2659
sS'Motorcycle'
p2591
I329
sS'Category:Western culture'
p2592
I1719
sS'Stetson'
p2593
I1385
sS'Kanzashi'
p2594
I1769
sS'Antisemitism'
p2595
I78
sS'Moire (fabric)'
p2596
I4353
sS'Uniforms of the Confederate States military forces'
p2597
I4166
sS'Carpet'
p2598
I1075
sS'Mao Zedong'
p2599
I324
sS'Chechnya'
p2600
I150
sS'Bathukamma'
p2601
I3739
sS'Amish'
p2602
I4124
sS'Super Bowl'
p2603
I454
sS'James Bond'
p2604
I264
sS'Denver'
p2605
I178
sS'Category:Fashion aesthetics'
p2606
I3562
sS'Irish linen'
p2607
I1942
sS'Training bra'
p2608
I3803
sS'Professional conference'
p2609
I3432
sS'Capri pants'
p2610
I2172
sS'Taffeta'
p2611
I2532
sS'Robe'
p2612
I1042
sS'Denison smock'
p2613
I2735
sS'Batsuit'
p2614
I2740
sS'Stripweave'
p2615
I4265
sS'Korea'
p2616
I281
sS'Briefcase'
p2617
I2049
sS'Blasphemy Day'
p2618
I4480
sS'Circlet'
p2619
I2246
sS'Ganguro'
p2620
I838
sS'Priestly robe (Judaism)'
p2621
I3917
sS'Yelek'
p2622
I3251
sS'Bat Masterson'
p2623
I1514
sS'Samue'
p2624
I3250
sS'Birkat Hamazon'
p2625
I2743
sS'Pattern (sewing)'
p2626
I2275
sS'Gandhi cap'
p2627
I3267
sS'Chhath'
p2628
I2117
sS'Nudie Cohn'
p2629
I2506
sS'Cap of Maintenance'
p2630
I2559
sS'Poet shirt'
p2631
I4535
sS'Anne Fogarty'
p2632
I4804
sS'Goldworm'
p2633
I4976
sS'Party game'
p2634
I728
sS'Black Sea'
p2635
I95
sS'Baja jacket'
p2636
I3923
sS'Category:Dance equipment'
p2637
I3871
sS'Peaked cap'
p2638
I2185
sS'Selvage'
p2639
I3176
sS'Spring break'
p2640
I1340
sS'List of World War II uniforms and clothing'
p2641
I1746
sS'Bolo tie'
p2642
I1229
sS'John Wayne'
p2643
I276
sS'Gift'
p2644
I623
sS'Gaucho'
p2645
I1249
sS'Finland'
p2646
I196
sS'National Football League'
p2647
I344
sS'Cornish kilts and tartans'
p2648
I2972
sS'Thai Pongal'
p2649
I1268
sS'Zibellino'
p2650
I3745
sS'Marie Antoinette'
p2651
I595
sS'Suede'
p2652
I884
sS'Ethiopian suit'
p2653
I4070
sS'Sherwani'
p2654
I2560
sS'British Royal Family'
p2655
I603
sS'Category:Office administration'
p2656
I2930
sS'Shenyi'
p2657
I4318
sS'Vijayadashami'
p2658
I1274
sS'Taiwan'
p2659
I416
sS'Seapunk'
p2660
I4839
sS'Kourtney Kardashian'
p2661
I3839
sS'Charro'
p2662
I1453
sS'Corner office'
p2663
I3983
sS'Tembel hat'
p2664
I4378
sS'Gamosa'
p2665
I3679
sS'List of festivals in Japan'
p2666
I4594
sS'Frock coat'
p2667
I1898
sS'Musical ensemble'
p2668
I332
sS'Peplos'
p2669
I1510
sS'Belted plaid'
p2670
I2348
sS'Kim Soo-hyun'
p2671
I4715
sS'Raksha Bandhan'
p2672
I1714
sS'Shahtoosh'
p2673
I1936
sS'Fanny pack'
p2674
I2226
sS'Paenula'
p2675
I3726
sS'Waxed jacket'
p2676
I2203
sS'Zouave jacket'
p2677
I4562
sS'BIKE Athletic Company'
p2678
I3276
sS'Native Hawaiians'
p2679
I1535
sS'Shutter Shades'
p2680
I3961
sS'Scrunchie'
p2681
I3368
sS'Parvati'
p2682
I765
sS'Tom Cruise'
p2683
I496
sS'Berlin International Film Festival'
p2684
I4081
sS'Kuwait'
p2685
I3304
sS'Group dating'
p2686
I3910
sS'Western world'
p2687
I4232
sS'Cleavage (breasts)'
p2688
I2213
sS'Boonie hat'
p2689
I3468
sS'Big Bang'
p2690
I115
sS'Sisal'
p2691
I672
sS'Shirtdress'
p2692
I3936
sS'Category:Workplace'
p2693
I4905
sS'Behnaz Sarafpour'
p2694
I3488
sS'Jagannath'
p2695
I1505
sS'Nigeria'
p2696
I357
sS'Obi (sash)'
p2697
I2486
sS'Tapestry crochet'
p2698
I4808
sS'Europe'
p2699
I183
sS'Khara dupatta'
p2700
I2963
sS'Ganesh Chaturthi'
p2701
I1971
sS'Norfolk jacket'
p2702
I2507
sS'Medical identification tag'
p2703
I1600
sS'Overall'
p2704
I1432
sS'Silambu'
p2705
I4526
sS'Lopapeysa'
p2706
I3371
sS'T-shirt'
p2707
I822
sS'Sudan'
p2708
I448
sS'Chuba'
p2709
I3117
sS'Category:19th-century fashion'
p2710
I4937
sS'Bohemianism'
p2711
I1233
sS'Neuroscience'
p2712
I348
sS'Bucket hat'
p2713
I1364
sS'Hong Kong'
p2714
I231
sS'Lacrosse glove'
p2715
I3603
sS'Same-sex marriage in Norway'
p2716
I3938
sS'Centers for Disease Control and Prevention'
p2717
I156
sS'Soraya Esfandiary-Bakhtiari'
p2718
I1111
sS'Engagement'
p2719
I8
sS'Canadian Broadcasting Corporation'
p2720
I699
sS'Mule (shoe)'
p2721
I1712
sS'Philippines'
p2722
I388
sS"Rabi' al-awwal"
p2723
I2530
sS'Mask'
p2724
I1051
sS'Sydney Gay and Lesbian Mardi Gras'
p2725
I769
sS'Yoga pants'
p2726
I4752
sS'Morocco'
p2727
I318
sS'Tyrian purple'
p2728
I818
sS'Category:Youth culture'
p2729
I2707
sS'Elevator'
p2730
I4127
sS'Langa Voni'
p2731
I3829
sS'Clean Clothes Campaign'
p2732
I3601
sS'Pannier (clothing)'
p2733
I2338
sS'Rash guard'
p2734
I1964
sS'The Timberland Company'
p2735
I2111
sS'Oran'
p2736
I797
sS'High Middle Ages'
p2737
I1392
sS'Kasaya (clothing)'
p2738
I3222
sS'Hip and buttock padding'
p2739
I3335
sS'Adidas'
p2740
I1038
sS'Camocas'
p2741
I4768
sS'Coco Chanel'
p2742
I3664
sS'Sehra (headdress)'
p2743
I2009
sS'Corolla (chaplet)'
p2744
I3960
sS'Nasal helmet'
p2745
I3185
sS'Mexican pointy boots'
p2746
I4703
sS'Bring Me the Horizon'
p2747
I3338
sS'See-through clothing'
p2748
I3158
sS'Kapa'
p2749
I1629
sS'Sun hat'
p2750
I3743
sS'Seat belt legislation'
p2751
I1696
sS'List of festivals in the United Kingdom'
p2752
I824
sS'Hindu deities'
p2753
I761
sS'Slide (footwear)'
p2754
I1829
sS'Maternity clothing'
p2755
I3962
sS'Doppa'
p2756
I3055
sS'Conference'
p2757
I18
sS'Hum Aapke Hain Koun..!'
p2758
I2287
sS'Dalmatic'
p2759
I1369
sS'Tulle bi telli'
p2760
I3817
sS'Mary Brooks Picken'
p2761
I2827
sS'R. Tait McKenzie'
p2762
I2645
sS'Vietnamese clothing'
p2763
I3239
sS'Nepal'
p2764
I893
sS'Ethical movement'
p2765
I2223
sS'Bathrobe'
p2766
I1922
sS'Ramesses III'
p2767
I794
sS'Himation'
p2768
I2678
sS'Deerstalker'
p2769
I1950
sS'Ottoman clothing'
p2770
I2495
sS'Sable'
p2771
I1207
sS'Clog (British)'
p2772
I4812
sS'Sanskrit'
p2773
I453
sS'Walk shorts'
p2774
I3741
sS'Missoni'
p2775
I3128
sS'Category:Clothing navigational boxes'
p2776
I4934
sS"Nurse's cap"
p2777
I3661
sS'Dresden'
p2778
I551
sS'Mobile phone charm'
p2779
I3270
sS'Pocket watch'
p2780
I1597
sS'Bandolier'
p2781
I987
sS'Traje de luces'
p2782
I4542
sS'Paranja'
p2783
I3431
sS'Swim cap'
p2784
I1963
sS"Women's Wear Daily"
p2785
I2652
sS'Kosode'
p2786
I4325
sS'Clothing in ancient Egypt'
p2787
I4678
sS'School uniforms in Sri Lanka'
p2788
I4514
sS'Hemp'
p2789
I1720
sS'List of festivals in Colombia'
p2790
I2529
sS'Sami people'
p2791
I439
sS'Money bag'
p2792
I4474
sS'Seaweed'
p2793
I4059
sS'Piping (sewing)'
p2794
I4033
sS'Worsted'
p2795
I795
sS'Waist cincher'
p2796
I4649
sS'Puritans'
p2797
I393
sS'Stevie Williams'
p2798
I3186
sS'Perfecto motorcycle jacket'
p2799
I3467
sS'The Betrothed'
p2800
I4171
sS'Grass skirt'
p2801
I3683
sS'Kontusz'
p2802
I1925
sS"Matron's badge"
p2803
I2908
sS'Vera Maxwell'
p2804
I3822
sS'Jewish hat'
p2805
I2362
sS'Orthodox Judaism'
p2806
I371
sS'Climate of India'
p2807
I1611
sS'Summer Wear'
p2808
I58
sS'Pakol'
p2809
I2755
sS'Jawaharlal Nehru'
p2810
I278
sS'Aglet'
p2811
I1234
sS'Thawb'
p2812
I5034
sS'Arkhalig'
p2813
I3710
sS'Spandex'
p2814
I831
sS'Mexico'
p2815
I2829
sS'Trade Me'
p2816
I2548
sS'Puebla City'
p2817
I915
sS'Armet'
p2818
I1896
sS'Western cosmetics in the 1970s'
p2819
I3890
sS'Hemp jewelry'
p2820
I4321
sS'Can-can dress'
p2821
I4769
sS'Category:Suits (clothing)'
p2822
I3108
sS'Trival'
p2823
I4623
sS'Ski helmet'
p2824
I3136
sS'Manuel Cuevas'
p2825
I3437
sS'Confucianism'
p2826
I143
sS'Ladder interview'
p2827
I2813
sS'Film'
p2828
I4267
sS"King's College London"
p2829
I850
sS'Scrimmage vest'
p2830
I2044
sS'Newar traditional clothing'
p2831
I4959
sS'Charles Macintosh'
p2832
I652
sS'Redingote'
p2833
I2860
sS'Italian charm bracelet'
p2834
I2805
sS'Chiton (costume)'
p2835
I2677
sS'Dolphin shorts'
p2836
I3787
sS'Taiwanese people'
p2837
I2899
sS'Beetlewing'
p2838
I4347
sS'The Dating Game'
p2839
I1523
sS'Gene Autry'
p2840
I910
sS'Fujin (Headgear)'
p2841
I4134
sS'Lunar New Year'
p2842
I1114
sS'Baggy green'
p2843
I1459
sS'Middle East'
p2844
I320
sS'Category:Holidays'
p2845
I1547
sS'Gel bracelet'
p2846
I2739
sS'Tobi trousers'
p2847
I4641
sS'Balinese dance'
p2848
I3629
sS'Texas'
p2849
I479
sS'Plastic pants'
p2850
I2294
sS'Bib (garment)'
p2851
I3483
sS'Tricana poveira'
p2852
I4828
sS'Trabea'
p2853
I4613
sS'Gamsbart'
p2854
I1669
sS'Anti-prom'
p2855
I2254
sS'Justin Bieber'
p2856
I4358
sS'Clothing terminology'
p2857
I32
sS'Houndstooth'
p2858
I2620
sS'Shearling'
p2859
I3313
sS'File:Stocking factory2.jpg'
p2860
I4540
sS'Interview (journalism)'
p2861
I5009
sS'Breeks'
p2862
I2614
sS'Veronica Mars'
p2863
I1768
sS'Dumdyam'
p2864
I4907
sS'Valenciennes lace'
p2865
I3990
sS'Klobuk'
p2866
I2247
sS'List of yarns for crochet and knitting'
p2867
I3874
sS'Sumptuary law'
p2868
I935
sS'School Certificate'
p2869
I1787
sS'Bar'
p2870
I1091
sS'Presidential sash'
p2871
I1011
sS'Partner dance'
p2872
I1201
sS'American Conference'
p2873
I3090
sS'Drinking culture'
p2874
I1261
sS'Cougar (slang)'
p2875
I3002
sS'Bobby soxer'
p2876
I2181
sS'Beonggeoji'
p2877
I4143
sS'Mushanana'
p2878
I4740
sS'Pope Innocent III'
p2879
I396
sS'Poplin'
p2880
I1196
sS'Science fiction'
p2881
I431
sS'Chlamys'
p2882
I1848
sS'Restart (band)'
p2883
I4600
sS'Roller derby'
p2884
I1619
sS'Silk reeling'
p2885
I3144
sS'Sexual attraction'
p2886
I995
sS'Monkey jacket'
p2887
I4276
sS'Jammu dress'
p2888
I5003
sS'Andrew Christian'
p2889
I4920
sS'Turmeric'
p2890
I482
sS'Senegalese kaftan'
p2891
I3804
sS'Kushti'
p2892
I3412
sS'Beanie (seamed cap)'
p2893
I1361
sS'Hadagi'
p2894
I3324
sS'Open-crotch pants'
p2895
I4838
sS'United Arab Emirates'
p2896
I709
sS'Category:Youth in Canada'
p2897
I4883
sS'Pheta (turban)'
p2898
I4466
sS'Bunad'
p2899
I1680
sS'Kolpos'
p2900
I4243
sS'Identity (social science)'
p2901
I1659
sS'Empress Michiko'
p2902
I1092
sS'Hutsuls'
p2903
I1683
sS'Black cap'
p2904
I2692
sS'Basic knitted fabrics'
p2905
I3078
sS'Skype'
p2906
I1290
sS'Shendyt'
p2907
I3224
sS'Pretty in Pink'
p2908
I1316
sS"Prince of Denmark's March"
p2909
I2155
sS'Charitable organization'
p2910
I1873
sS'Sed festival'
p2911
I2052
sS'Vista All Terrain Pattern'
p2912
I4867
sS'Rohit Khosla'
p2913
I3996
sS'Mancation'
p2914
I3646
sS'Hobo bag'
p2915
I2636
sS'Czech Republic'
p2916
I133
sS'Gilbert and Sullivan'
p2917
I226
sS'The Five Ks'
p2918
I1413
sS'Miss Australia'
p2919
I1786
sS'Laurel wreath'
p2920
I2857
sS'Burgonet'
p2921
I2718
sS'Yashmak'
p2922
I2425
sS'Hogmanay'
p2923
I246
sS'Independent music'
p2924
I2146
sS'Clear heels'
p2925
I4607
sS'Diplomatic uniform'
p2926
I4572
sS'Carpet bag'
p2927
I2257
sS'Dolce & Gabbana'
p2928
I1404
sS'Warehouse'
p2929
I1426
sS'Autonomous communities of Spain'
p2930
I653
sS'Navratri'
p2931
I4392
sS'Reversible garment'
p2932
I4401
sS'Middletown, Kentucky'
p2933
I781
sS'Clip-on tie'
p2934
I3216
sS"A Midsummer Night's Dream"
p2935
I584
sS'United States Secretary of State'
p2936
I514
sS'Rastafari'
p2937
I576
sS'Gymnasium (school)'
p2938
I999
sS'Hair crimping'
p2939
I2405
sS'Bangladesh textile industry'
p2940
I3815
sS'Zoot suit'
p2941
I1256
sS'Johann Pachelbel'
p2942
I681
sS'Flax'
p2943
I564
sS'Teddy (garment)'
p2944
I2271
sS'Renaissance'
p2945
I413
sS'Terai'
p2946
I2138
sS'Court uniform and dress in the United Kingdom'
p2947
I2800
sS'BMW'
p2948
I110
sS'Ship transport'
p2949
I467
sS'Fustian'
p2950
I2002
sS'Sea silk'
p2951
I3007
sS'Eliezer'
p2952
I1508
sS'Fruit hat'
p2953
I4371
sS'Footloose (1984 film)'
p2954
I1658
sS'Ukraine'
p2955
I502
sS'1970s in Western fashion'
p2956
I3071
sS'Tonga'
p2957
I485
sS'Paramilitary'
p2958
I802
sS'New Zealand'
p2959
I2976
sS'Formal wear'
p2960
I23
sS'Tube top'
p2961
I1587
sS'Grease (film)'
p2962
I1182
sS'Mantua (clothing)'
p2963
I2241
sS'Ming dynasty'
p2964
I588
sS'United States'
p2965
I2724
sS'Beer festival'
p2966
I2682
sS'Madhur Bhandarkar'
p2967
I3148
sS'Mali'
p2968
I314
sS'Azim Premji'
p2969
I1289
sS'New York Fashion Week'
p2970
I3551
sS'Omega chain'
p2971
I1911
sS'Will Rogers'
p2972
I858
sS'Cricket whites'
p2973
I3328
sS'Category:National costume'
p2974
I4034
sS'Colobium Sindonis'
p2975
I1686
sS'Kanga (African garment)'
p2976
I3259
sS'Ashvin'
p2977
I1862
sS'Biblical sandals'
p2978
I4424
sS'Bank holiday'
p2979
I849
sS'Spats (footwear)'
p2980
I2326
sS'Elsevier'
p2981
I1286
sS'Poncho'
p2982
I1698
sS'Category:Western wear'
p2983
I35
sS'Kho (costume)'
p2984
I4730
sS'Teneriffe lace'
p2985
I2268
sS'Karen people'
p2986
I1494
sS'Journal of Occupational and Environmental Medicine'
p2987
I4247
sS'Category:History of fashion'
p2988
I2630
sS'Samba'
p2989
I462
sS'Charles Atlas'
p2990
I1428
sS'Shakti'
p2991
I4259
sS'Middle English'
p2992
I625
sS'Something old'
p2993
I4538
sS'Rigger boot'
p2994
I1756
sS'Kabylie'
p2995
I1194
sS'Kancheepuram Silk'
p2996
I4851
sS'Renaissance fair'
p2997
I1871
sS'Haramaki (clothing)'
p2998
I4787
sS'Fashion Net'
p2999
I4273
sS'Relaxation technique'
p3000
I2189
sS'Pareo'
p3001
I2834
sS'Napa leather'
p3002
I3886
sS'Chukka boot'
p3003
I3970
sS'Phiran'
p3004
I4992
sS'Clayton Moore'
p3005
I1751
sS'Steel-toe boot'
p3006
I1172
sS'Coty Award'
p3007
I2711
sS'Running shorts'
p3008
I3737
sS'Panty line'
p3009
I4255
sS'Underwear fetishism'
p3010
I4506
sS'Algeria'
p3011
I63
sS'Charge of the Light Brigade'
p3012
I4088
sS'Modal (textile)'
p3013
I1920
sS'U.S. Consumer Product Safety Commission'
p3014
I1688
sS'Hanuman temple, Salangpur'
p3015
I4328
sS'Minangkabau marriage'
p3016
I4918
sS'Mesh'
p3017
I1778
sS'Twill'
p3018
I1556
sS'Belgium'
p3019
I91
sS'Kolhapuri chappal'
p3020
I4362
sS'Bandeau'
p3021
I3656
sS'President of Turkey'
p3022
I853
sS'Human waste'
p3023
I1823
sS'Chinese alchemy'
p3024
I2234
sS'Bhaad-gaaule'
p3025
I3498
sS'Machilipatnam'
p3026
I2007
sS'Jingle dress'
p3027
I3550
sS'Zuria'
p3028
I3439
sS'South India'
p3029
I1532
sS'Diadem'
p3030
I1932
sS'Mohawk hairstyle'
p3031
I1681
sS'Nowruz'
p3032
I973
sS'Before Present'
p3033
I1729
sS'Bodysuit'
p3034
I1150
sS'Jacket'
p3035
I1533
sS'University of Mysore'
p3036
I1759
sS'Thong (clothing)'
p3037
I4254
sS'Guinea-Bissau'
p3038
I217
sS'Cloche hat'
p3039
I3572
sS'Pasties'
p3040
I2159
sS'Waist (clothing)'
p3041
I2734
sS'Kilt pin'
p3042
I3039
sS'Frog (fastening)'
p3043
I2074
sS'Gown'
p3044
I2869
sS'Olefin fiber'
p3045
I3115
sS'Julie Andrews'
p3046
I734
sS'Shrug (clothing)'
p3047
I3010
sS'Feather cloak'
p3048
I2605
sS'Bachelor party'
p3049
I1545
sS'Comparison of online dating websites'
p3050
I4072
sS'Steel building'
p3051
I3334
sS'Cap badge'
p3052
I1621
sS'School uniforms in South Korea'
p3053
I4739
sS'Canezou'
p3054
I4771
sS'Lee Cooper'
p3055
I3955
sS'White coat'
p3056
I2460
sS'Fashion Central'
p3057
I4702
sS'Shoelace knot'
p3058
I4642
sS'Small knot'
p3059
I3169
sS"Template:Men's undergarments"
p3060
I3939
sS'Category:21st-century fashion'
p3061
I4941
sS'Kegelhelm'
p3062
I3928
sS'History of bras'
p3063
I3352
sS'Joan Smalls'
p3064
I4816
sS'Goodyear welt'
p3065
I2619
sS'Mumbai'
p3066
I316
sS'Hanes'
p3067
I2966
sS'Bast fibre'
p3068
I2557
sS'Underpants'
p3069
I1002
sS'Category:Garment industry'
p3070
I2777
sS'Goa'
p3071
I4955
sS'Outsourcing'
p3072
I1034
sS'Time management'
p3073
I495
sS'Indo-Western clothing'
p3074
I31
sS'Deck the Halls'
p3075
I2759
sS'Fur'
p3076
I4095
sS'Baby sling'
p3077
I1653
sS'Barrette'
p3078
I2509
sS'Opanak'
p3079
I2010
sS'Hindu temple'
p3080
I2375
sS'Sailor suit'
p3081
I2493
sS'Rayadillo'
p3082
I4004
sS'Status symbol'
p3083
I1445
sS'Hair loss'
p3084
I971
sS'Iceland'
p3085
I247
sS'Jewelry design'
p3086
I3450
sS'Timothy Brook'
p3087
I4451
sS'Patrol cap'
p3088
I3857
sS'Ghost shirt'
p3089
I3475
sS'Rugby shorts'
p3090
I4515
sS'Capsule wardrobe'
p3091
I4326
sS'God'
p3092
I3005
sS'Gymnastyorka'
p3093
I4113
sS'Germany'
p3094
I210
sS'Rudi Gernreich'
p3095
I1388
sS'Polytetrafluoroethylene'
p3096
I493
sS'Honiton lace'
p3097
I4693
sS'Oxford English Dictionary'
p3098
I372
sS'Infant bodysuit'
p3099
I2293
sS'Calico'
p3100
I165
sS'List of fashion designers'
p3101
I1810
sS'Disruptive Pattern Material'
p3102
I2578
sS'Bangladeshi RMG Sector'
p3103
I4283
sS'Same-sex marriage in France'
p3104
I1519
sS'Crayfish party'
p3105
I2818
sS'Ghanaian smock'
p3106
I4234
sS'Inline skates'
p3107
I775
sS'Konkani people'
p3108
I2592
sS'Laghouat'
p3109
I3047
sS'Hawaii'
p3110
I227
sS'Nakshatra'
p3111
I2004
sS'Acid dye'
p3112
I2160
sS'Denim skirt'
p3113
I3012
sS'Orenburg shawl'
p3114
I3023
sS'Solenn Heussaff'
p3115
I4618
sS'Ribbon work'
p3116
I4304
sS'The Daily Telegraph'
p3117
I4365
sS'Guyana'
p3118
I3987
sS'Kidney belt'
p3119
I3593
sS'Stella McCartney'
p3120
I1651
sS'Afghan Coat'
p3121
I4375
sS'Oktoberfest'
p3122
I3326
sS'Category:Indexes of topics'
p3123
I4788
sS'Limburg (Netherlands)'
p3124
I306
sS'Quaker wedding'
p3125
I2006
sS'Honduras'
p3126
I230
sS'Fuck-me shoes'
p3127
I4760
sS'Same-sex marriage in the Republic of Ireland'
p3128
I1524
sS'Egypt'
p3129
I3363
sS'Boss Hogg'
p3130
I2242
sS'Template:Hosiery'
p3131
I3627
sS'Gamucha'
p3132
I3973
sS'Jewish wedding'
p3133
I2956
sS'1910s in Western fashion'
p3134
I3615
sS'Dolman'
p3135
I2654
sS'Health insurance'
p3136
I1357
sS'Duster (clothing)'
p3137
I2288
sS'Adam and Eve'
p3138
I3674
sS'Orion Publishing Group'
p3139
I2411
sS'Buckskin (leather)'
p3140
I2269
sS'Western Europe'
p3141
I532
sS'Holy Roman Emperor'
p3142
I626
sS'Satin'
p3143
I1174
sS'Sikh'
p3144
I478
sS'Jingle Bells'
p3145
I1657
sS'Princess seams'
p3146
I4216
sS'Saadia Gaon'
p3147
I871
sS'Olympic Games ceremony'
p3148
I4175
sS'Category:Night'
p3149
I3689
sS'Knit cap'
p3150
I1247
sS'Self-service laundry'
p3151
I3700
sS'Onnara'
p3152
I4373
sS'Sakkos'
p3153
I2209
sS'National Conference'
p3154
I2984
sS'Kroje'
p3155
I2192
sS'History of fashion design'
p3156
I3353
sS'Mantle (clothing)'
p3157
I4295
sS'December 31'
p3158
I176
sS'Underwire bra'
p3159
I4306
sS'Woodblock printing'
p3160
I2099
sS'Birkenstock'
p3161
I2262
sS'Rick Owens'
p3162
I3408
sS'Madonna (entertainer)'
p3163
I792
sS'Hat'
p3164
I1338
sS'Kerala sari'
p3165
I4185
sS'Priestly turban'
p3166
I3194
sS'Target Corporation'
p3167
I4056
sS'Ski boot'
p3168
I1177
sS'William the Conqueror'
p3169
I534
sS'Hackle'
p3170
I1726
sS'Outline of festivals'
p3171
I4489
sS'Chang kben'
p3172
I4381
sS'Muslin'
p3173
I972
sS'Princess Beatrice of York'
p3174
I913
sS'Kostenki'
p3175
I4521
sS'Muslim'
p3176
I325
sS'Proto-Indo-European language'
p3177
I1439
sS'Vestment'
p3178
I1212
sS'Yuanlingshan'
p3179
I4315
sS'Wheel of the Year'
p3180
I529
sS'Reform Judaism'
p3181
I420
sS'Bosnia and Herzegovina'
p3182
I107
sS'Beltane'
p3183
I122
sS'Mempo'
p3184
I2902
sS'Fourth Council of the Lateran'
p3185
I206
sS'Neckerchief'
p3186
I1016
sS'Liberia'
p3187
I299
sS'Timeline of non-sexual social nudity'
p3188
I4236
sS'Latex clothing'
p3189
I2745
sS'Konos (helmet)'
p3190
I4366
sS'Tarantella'
p3191
I1099
sS'Tilaka'
p3192
I2198
sS'Bouffant gown'
p3193
I4927
sS'Fashion in India'
p3194
I62
sS'Tapis (Philippine clothing)'
p3195
I4044
sS'Conference call'
p3196
I1267
sS'Clothing in Mauritius'
p3197
I3768
sS'Galloon'
p3198
I3826
sS'Cricket cap'
p3199
I3864
sS'Minutes'
p3200
I1675
sS'Red Sea rig'
p3201
I3713
sS'Ninon'
p3202
I2420
sS'Yukata'
p3203
I811
sS'Kitenge'
p3204
I3049
sS'Jews'
p3205
I4454
sS'Carrickmacross lace'
p3206
I2281
sS'Winter solstice'
p3207
I3400
sS'Chinese marriage'
p3208
I2212
sS'Kirza'
p3209
I4511
sS'Backcombing'
p3210
I2797
sS'Easter bonnet'
p3211
I2112
sS'Overcoat'
p3212
I1721
sS'Fiance (disambiguation)'
p3213
I3266
sS'Voile'
p3214
I2079
sS'Chador'
p3215
I1394
sS'Unit Colour Patch'
p3216
I2926
sS'Government of India'
p3217
I1431
sS'Miss March'
p3218
I4222
sS'Cross country running shoe'
p3219
I4916
sS'Smart casual'
p3220
I37
sS'Guards coat'
p3221
I4968
sS'J.Crew'
p3222
I2334
sS'Hessian fabric'
p3223
I2360
sS'Christian Dior'
p3224
I803
sS'United Nations General Assembly'
p3225
I510
sS'Sprang'
p3226
I3105
sS'Chelsea Arts Club'
p3227
I2075
sS'Gusset'
p3228
I2788
sS'Mandarin collar'
p3229
I2731
sS'Shirt'
p3230
I1074
sS'Early Christianity'
p3231
I1771
sS'Fursuit'
p3232
I1456
sS'G-1 military flight jacket'
p3233
I3774
sS'Puneri Pagadi'
p3234
I4865
sS'Modius (headdress)'
p3235
I4856
sS'Sweater girl'
p3236
I2222
sS'Zayn Malik'
p3237
I5015
sS'Ossetia'
p3238
I927
sS'Delphos gown'
p3239
I2168
sS'Asking Alexandria'
p3240
I4391
sS'Human body'
p3241
I648
sS'Bondage pants'
p3242
I2023
sS'Charles V, Holy Roman Emperor'
p3243
I718
sS'Jainism'
p3244
I274
sS'Chimere'
p3245
I1953
sS'Collective wedding'
p3246
I4621
sS'Common Era'
p3247
I149
sS'American Pie (film)'
p3248
I2494
sS'Shalu (sari)'
p3249
I3014
sS'Hammer pants'
p3250
I3161
sS'New York City'
p3251
I1513
sS'Aramid'
p3252
I1089
sS'Kickoff meeting'
p3253
I3823
sS'Category:History of Asian clothing'
p3254
I4640
sS'Oregon'
p3255
I4483
sS'Wonder Girls'
p3256
I3528
sS'Braiding machine'
p3257
I4357
sS'Mantelletta'
p3258
I2957
sS'Cambric'
p3259
I2162
sS'Egyptians'
p3260
I4700
sS'Tehran'
p3261
I673
sS'Blanket sleeper'
p3262
I1998
sS'University Athletic Association of the Philippines'
p3263
I1078
sS'Nebraska State Historical Society'
p3264
I3424
sS'Jussishirt'
p3265
I3953
sS'Crazy Love (1987 film)'
p3266
I3428
sS'Brahmin'
p3267
I1047
sS'Skintern'
p3268
I5020
sS'Festive ecology'
p3269
I3165
sS'East Asian age reckoning'
p3270
I2320
sS'Barkcloth'
p3271
I3124
sS'Ohaguro'
p3272
I1822
sS'Baseball glove'
p3273
I1642
sS'Bariloche'
p3274
I1578
sS'Street fashion'
p3275
I54
sS'Tortoiseshell'
p3276
I3121
sS'Full Moon Party'
p3277
I2164
sS'Oeko-tex standard'
p3278
I3018
sS'Coppola (cap)'
p3279
I3357
sS'Workwear'
p3280
I42
sS'Porter Wagoner'
p3281
I1785
sS'Stole (vestment)'
p3282
I1355
sS'Flapper'
p3283
I974
sS'The Confusions of Pleasure'
p3284
I4452
sS'Camisa blouse'
p3285
I4767
sS'Caliphate'
p3286
I1616
sS'Preadolescence'
p3287
I980
sS'Chokha'
p3288
I3214
sS'Swedish Military Uniform'
p3289
I3359
sS'Pile (textile)'
p3290
I3781
sS'British Fashion Council'
p3291
I4184
sS'Tubeteika'
p3292
I2663
sS'Speed dating'
p3293
I883
sS'Spindle (textiles)'
p3294
I2305
sS'Jazz shoe'
p3295
I4412
sS'Buddhist view of marriage'
p3296
I1320
sS'Ivy League'
p3297
I259
sS'Bell-bottoms'
p3298
I1591
sS'Chic'
p3299
I3032
sS'Hip-huggers'
p3300
I2700
sS'Cubicle'
p3301
I1199
sS'Organic cotton'
p3302
I3203
sS'Cotton'
p3303
I545
sS'Beetlejuice'
p3304
I1125
sS'Nightwear'
p3305
I22
sS'George Shaw (academic dress scholar)'
p3306
I2781
sS'Guy Fawkes Night'
p3307
I1737
sS'Panama'
p3308
I379
sS'Solicitor General of the United States'
p3309
I778
sS'Miai'
p3310
I2339
sS'Raja (festival)'
p3311
I4599
sS'Textile printing'
p3312
I2658
sS'If You Are the One (game show)'
p3313
I4629
sS'Air Jordan'
p3314
I1997
sS'Zoa Morani'
p3315
I4830
sS'Category:Marriage'
p3316
I1580
sS'Category:Balls (dance)'
p3317
I4212
sS'Mary, Queen of Scots'
p3318
I335
sS'Gowni'
p3319
I2003
sS'Clothing technology'
p3320
I4368
sS'The Guardian'
p3321
I4121
sS'Amazon rainforest'
p3322
I618
sS'Taqiya'
p3323
I1214
sS'Thorns, spines, and prickles'
p3324
I4442
sS'Structured interview'
p3325
I2463
sS'Reality television'
p3326
I561
sS'Smocking'
p3327
I3542
sS'History of clothing and textiles'
p3328
I3378
sS'Asian conical hat'
p3329
I2087
sS'Japanese clothing'
p3330
I809
sS'Damask'
p3331
I1912
sS'Uchi-bukuro'
p3332
I3325
sS'Rickrack'
p3333
I3026
sS'Passover'
p3334
I382
sS'Train'
p3335
I491
sS'California'
p3336
I136
sS'Form-fitting garment'
p3337
I4503
sS'Rajasthan'
p3338
I425
sS'Travancore'
p3339
I857
sS'Ave Maria lace'
p3340
I4639
sS'Mail (armour)'
p3341
I154
sS'Leg warmer'
p3342
I1466
sS'Middle Ages'
p3343
I307
sS'Huipil'
p3344
I2808
sS'Freshpair'
p3345
I4399
sS'Klomp'
p3346
I4810
sS'Agent Provocateur (lingerie)'
p3347
I2219
sS'Ida Rosenthal'
p3348
I1582
sS'Ralph Lauren Corporation'
p3349
I4850
sS'Wedding photography'
p3350
I2633
sS'Graduation'
p3351
I12
sS'Epigonation'
p3352
I2210
sS'Mary Mei Loc Wu'
p3353
I5004
sS'Ayam (cap)'
p3354
I4123
sS'Morris dance'
p3355
I638
sS'Topor (headgear)'
p3356
I2229
sS'Eastern Christianity'
p3357
I580
sS'MA-2 bomber jacket'
p3358
I3309
sS'Mercerised cotton'
p3359
I2005
sS'Sallet'
p3360
I1500
sS'Hanfu'
p3361
I4947
sS'Nick Kamen'
p3362
I1655
sS'Sombrero vueltiao'
p3363
I3354
sS'Category:Hindu festivals'
p3364
I1794
sS'Chanakya'
p3365
I1350
sS'Category:Wedding clothing'
p3366
I4605
sS'Ochipok'
p3367
I3909
sS'Felix Mendelssohn'
p3368
I729
sS'Category:Clothing by function'
p3369
I46
sS'Pleat'
p3370
I2913
sS'Gymslip'
p3371
I3045
sS'Tuxedo'
p3372
I3473
sS'History of Western fashion'
p3373
I2760
sS'Polo neck'
p3374
I1652
sS'Cocktail dress'
p3375
I2151
sS'Samantha Fox'
p3376
I1118
sS'Toile'
p3377
I2531
sS'Drag (clothing)'
p3378
I1465
sS'Organdy'
p3379
I3157
sS'Phulkari'
p3380
I2824
sS'Moon Boot'
p3381
I2945
sS'Chemisette'
p3382
I2714
sS'Wanda Jackson'
p3383
I1855
sS'Qatar'
p3384
I3376
sS'Facing colour'
p3385
I2811
sS'Italy'
p3386
I248
sS'Italian language'
p3387
I257
sS'French knickers'
p3388
I3578
sS'Sacraments of the Catholic Church'
p3389
I4626
sS'Valley Girls'
p3390
I4333
sS'Hoggar Mountains'
p3391
I1429
sS'Swaddling'
p3392
I2240
sS'Platform boot'
p3393
I2503
sS'Virginia Woolf'
p3394
I519
sS'Apostolnik'
p3395
I2300
sS'Cheerleading uniform'
p3396
I3524
sS'Category:Evaluation methods'
p3397
I2833
sS'Shweshwe'
p3398
I4975
sS'Bell-boy hat'
p3399
I3652
sS'Air travel'
p3400
I1311
sS'Case interview'
p3401
I3878
sS'Easter'
p3402
I186
sS'Economic liberalisation in India'
p3403
I4219
sS'Prom Night in Mississippi'
p3404
I4420
sS'Robert Baden-Powell, 1st Baron Baden-Powell'
p3405
I682
sS'Psychology Today'
p3406
I1939
sS'Friendship Day'
p3407
I2432
sS'Esther'
p3408
I189
sS'Washington Irving'
p3409
I531
sS'Mechlin lace'
p3410
I3991
sS'List of festivals in Canada'
p3411
I873
sS'Cope'
p3412
I1386
sS'Kumkuma'
p3413
I2416
sS'French language'
p3414
I197
sS'Evening gown'
p3415
I2152
sS'Wuhan'
p3416
I738
sS'Petticoat'
p3417
I1707
sS'Chaperone (social)'
p3418
I1046
sS'Sarpech'
p3419
I4794
sS'Buka cloak'
p3420
I3719
sS'Handbag'
p3421
I1868
sS'Jonathan Toubin'
p3422
I4979
sS'1920s in Western fashion'
p3423
I3342
sS'Silk'
p3424
I628
sS'Piccadill'
p3425
I2361
sS'Indian religions'
p3426
I255
sS'Duffle coat'
p3427
I2333
sS'Bomkai Sari'
p3428
I4608
sS'Party of Five'
p3429
I1297
sS'Mekhela chador'
p3430
I3668
sS'Handkerchief skirt'
p3431
I4837
sS'Shaivism'
p3432
I1093
sS'Jamdani'
p3433
I2043
sS'Chiffon (clothing)'
p3434
I3442
sS'Category:Sports clothing'
p3435
I3034
sS'Patchwork'
p3436
I622
sS'Ageing'
p3437
I3943
sS'Custodian helmet'
p3438
I3122
sS'Snood (headgear)'
p3439
I1584
sS'Linen'
p3440
I666
sS'Category:Canadian culture'
p3441
I1563
sS'Antistatic garments'
p3442
I3331
sS'Shot silk'
p3443
I3790
sS'Milton Bradley Company'
p3444
I840
sS'China poblana'
p3445
I1900
sS'Trapper (ice hockey)'
p3446
I4199
sS'Pteruges'
p3447
I3225
sS'Tarun Tahiliani'
p3448
I2775
sS'Shtreimel'
p3449
I1994
sS'Polypropylene'
p3450
I978
sS'Abolla'
p3451
I2736
sS'Armscye'
p3452
I3068
sS'Academic conference'
p3453
I2449
sS'Burqini'
p3454
I3438
sS'Joachim Heinrich Campe'
p3455
I2492
sS'The New York Times'
p3456
I492
sS'Randoseru'
p3457
I3262
sS'Bowling shirt'
p3458
I4215
sS'Sailor dress'
p3459
I4996
sS'Pompadour (hairstyle)'
p3460
I3756
sS'School uniforms in England'
p3461
I4446
sS'Loose socks'
p3462
I810
sS'Flipsters'
p3463
I4802
sS'Gulle'
p3464
I4133
sS'Norm (social)'
p3465
I592
sS'Occupational safety and health'
p3466
I4832
sS'Modern dress'
p3467
I3944
sS'National archives'
p3468
I4997
sS'Kurta'
p3469
I1273
sS'Category:Dresses'
p3470
I3533
sS'Fouta towel'
p3471
I4507
sS'Phrygian helmet'
p3472
I4382
sS'Rah-rah skirt'
p3473
I3221
sS'Coconut jewelry'
p3474
I3760
sS'Pierre Cardin'
p3475
I1269
sS'Made to measure'
p3476
I3734
sS'Javanese people'
p3477
I1362
sS'Michelle Obama'
p3478
I2355
sS'Smoking age'
p3479
I3711
sS'Seoul'
p3480
I4105
sS'History of corsets'
p3481
I1717
sS'Brussels lace'
p3482
I3994
sS'Hair stick'
p3483
I3929
sS'Internet'
p3484
I251
sS'Rubber glove'
p3485
I2434
sS'Woggle'
p3486
I2188
sS'Tamil Nadu'
p3487
I480
sS'Runway (fashion)'
p3488
I3495
sS'Gudi Padwa'
p3489
I2137
sS'Baywatch'
p3490
I1103
sS'Gomusin'
p3491
I4280
sS'Wedding of Prince William and Catherine Middleton'
p3492
I4614
sS'Pectoral (Ancient Egypt)'
p3493
I4348
sS'Zoosk'
p3494
I4500
sS'Age disparity in sexual relationships'
p3495
I4117
sS'Benny Gantz'
p3496
I3035
sS'Dorothy Perkins'
p3497
I2398
sS'Manta (dress)'
p3498
I4546
sS'Category:Works originally published in Startling Stories'
p3499
I4661
sS'West Bengal'
p3500
I535
sS'Argyle (pattern)'
p3501
I1966
sS'Karthikai Deepam'
p3502
I1886
sS'Ruqun'
p3503
I4311
sS'David Beckham'
p3504
I179
sS'Category:Short stories by L. Sprague de Camp'
p3505
I3289
sS'Pratt knot'
p3506
I2563
sS'Collar (BDSM)'
p3507
I1457
sS'Princess line'
p3508
I4990
sS'Bicorne'
p3509
I1845
sS'Ernest Tubb'
p3510
I1175
sS'Inverness coat'
p3511
I4173
sS'Parliamentary procedure'
p3512
I719
sS'Cognitive interview'
p3513
I3911
sS'Category:Lingerie'
p3514
I3582
sS'Jumper (dress)'
p3515
I657
sS'Syro-Malabar Catholic Church'
p3516
I1425
sS'We Built This City'
p3517
I1954
sS'AFL Grand Final'
p3518
I2715
sS'Malayalam'
p3519
I548
sS'Northern Hemisphere'
p3520
I368
sS'Yemen'
p3521
I1209
sS'Roller skates'
p3522
I1864
sS"Men's skirts"
p3523
I3662
sS'Newsboy cap'
p3524
I1472
sS'Pakistan'
p3525
I384
sS'Albania'
p3526
I71
sS'Samoa'
p3527
I443
sS'Rite of passage'
p3528
I1043
sS'Category:History of clothing'
p3529
I3112
sS'Police uniforms of the United States'
p3530
I4974
sS'Ooty'
p3531
I715
sS'Age of consent'
p3532
I82
sS'British country clothing'
p3533
I5012
sS'Pencil suit'
p3534
I4427
sS'Knee-high boot'
p3535
I2141
sS'Lederhosen'
p3536
I1744
sS'Communion (Christian)'
p3537
I2501
sS'Portable Document Format'
p3538
I392
sS'Chinese tea culture'
p3539
I1081
sS'Pageboy'
p3540
I1955
sS'Management'
p3541
I330
sS'Java'
p3542
I710
sS'Prom (film)'
p3543
I4596
sS'Flocking (texture)'
p3544
I1956
sS'Nike, Inc.'
p3545
I4093
sS'Lingerie tape'
p3546
I3314
sS'Macedonian national costume'
p3547
I4825
sS'Juliet cap'
p3548
I4497
sS'Draupadi'
p3549
I1241
sS'Akhil Bharatiya Hindu Mahasabha'
p3550
I1941
sS'Cable knitting'
p3551
I2985
sS'Origen'
p3552
I374
sS'Gwanbok'
p3553
I4142
sS'Paduka'
p3554
I4207
sS'Miniskirt'
p3555
I976
sS'Mohair'
p3556
I898
sS'Snap fastener'
p3557
I2328
sS'Sophia Magdalena of Denmark'
p3558
I2072
sS'Belt hook'
p3559
I4902
sS'Tamils'
p3560
I1134
sS'Rainbow Loom'
p3561
I4963
sS'Saekdongot'
p3562
I4147
sS'Greco-Buddhist art'
p3563
I1599
sS'Prison uniform'
p3564
I3016
sS'Cotton Incorporated'
p3565
I2034
sS'Dale Evans'
p3566
I1397
sS'Wrangler (jeans)'
p3567
I1832
sS'Davy Crockett'
p3568
I736
sS'Raja Ravi Varma'
p3569
I1685
sS'Plain dress'
p3570
I3843
sS'Kendall Jenner'
p3571
I4395
sS'Educational stage'
p3572
I2706
sS'Chinese clothing'
p3573
I3673
sS'Racing flat'
p3574
I2933
sS'Bustle'
p3575
I1824
sS'Crochet'
p3576
I164
sS'Pound sterling'
p3577
I1088
sS'Mode of transport'
p3578
I2437
sS'Av Pak'
p3579
I4410
sS'Medebeli'
p3580
I3445
sS'Corduroy'
p3581
I1826
sS'Toga'
p3582
I938
sS'Karachi'
p3583
I285
sS'Turkish trousers'
p3584
I4624
sS'Loom'
p3585
I605
sS'Dragon robe'
p3586
I4759
sS'Tyrolean hat'
p3587
I3280
sS'Ukrainian wreath'
p3588
I3859
sS'Knitted fabric'
p3589
I3098
sS'Elastomer'
p3590
I1634
sS'Dwight D. Eisenhower'
p3591
I175
sS'Orbit'
p3592
I370
sS'Coat (clothing)'
p3593
I1188
sS'Seersucker'
p3594
I2091
sS'Middle English Dictionary'
p3595
I3744
sS'Detachable collar'
p3596
I2096
sS'Barathea'
p3597
I4183
sS'Rabbit hair'
p3598
I2412
sS'Fast fashion'
p3599
I3279
sS'Jelebiya'
p3600
I3443
sS'Russia'
p3601
I406
sS'Papal shoes'
p3602
I2318
sS'Oviedo'
p3603
I851
sS'Romania'
p3604
I408
sS'Wedding dress of Wallis Warfield'
p3605
I4694
sS'The Only Way Is Essex'
p3606
I4595
sS"International Workers' Day"
p3607
I4945
sS'Scoop neck'
p3608
I3054
sS'Alpaca fiber'
p3609
I3880
sS'Pajamas'
p3610
I829
sS'Grain (textile)'
p3611
I2579
sS'Duty armband'
p3612
I4516
sS'Top Gun'
p3613
I919
sS'Kodagu district'
p3614
I1130
sS'Kaftan'
p3615
I1581
sS'Persian people'
p3616
I401
sS'10 Things I Hate About You'
p3617
I1257
sS'Jockstrap'
p3618
I1568
sS'Dallas Cowboys'
p3619
I172
sS"Baro't saya"
p3620
I3712
sS'Ralph Lauren'
p3621
I1323
sS'Georgina Wilson'
p3622
I4657
sS'John Fairchild (editor)'
p3623
I4965
sS'Mawashi'
p3624
I1117
sS'Crop (hairstyle)'
p3625
I2758
sS'Eyepatch'
p3626
I1031
sS'Suspenders'
p3627
I1554
sS'Raja Hindustani'
p3628
I2103
sS'Pillbox hat'
p3629
I2790
sS'Nanofiber'
p3630
I2905
sS'Nuakhai'
p3631
I4089
sS'Ivory Coast'
p3632
I674
sS'Action Office'
p3633
I2893
sS'Spencer (clothing)'
p3634
I3202
sS'Glamour (presentation)'
p3635
I4188
sS'Sound recording and reproduction'
p3636
I2447
sS'Mullet (haircut)'
p3637
I1282
sS'Victoria Day'
p3638
I1018
sS'Beard'
p3639
I864
sS'Papi (brand)'
p3640
I4458
sS'Belarus'
p3641
I103
sS'Clothing in ancient Rome'
p3642
I3554
sS'Headgear'
p3643
I4583
sS'Laundry symbol'
p3644
I881
sS'Nankeen'
p3645
I2523
sS'Category:Nightwear'
p3646
I38
sS'Bouffant'
p3647
I2564
sS'Queue (hairstyle)'
p3648
I3118
sS'Twinset'
p3649
I2526
sS'Jamawar'
p3650
I2936
sS'Toego'
p3651
I4732
sS'Hoodie'
p3652
I2060
sS'Puerto Rico'
p3653
I381
sS'Cap (sport)'
p3654
I2661
sS'Wetlook'
p3655
I1529
sS'Prince William, Duke of Cambridge'
p3656
I720
sS'Dickey (garment)'
p3657
I2489
sS'Madras (costume)'
p3658
I4504
sS'Lord Frederick Windsor'
p3659
I1442
sS'Hood (headgear)'
p3660
I1377
sS'Sangu (armour)'
p3661
I3296
sS'Kidan Habesha'
p3662
I3444
sS'Assyrian clothing'
p3663
I3102
sS'T-bar sandal'
p3664
I4301
sS'Satchel'
p3665
I2935
sS'Chinese New Year'
p3666
I4161
sS'Doljanchi'
p3667
I3828
sS'Gucci'
p3668
I1637
sS'Warp and woof'
p3669
I1614
sS'Style line'
p3670
I3080
sS'British Warm'
p3671
I4928
sS'Switzerland'
p3672
I429
sS'Islam and clothing'
p3673
I1646
sS'Baptism'
p3674
I121
sS'Brogan (shoes)'
p3675
I4443
sS'Crochet thread'
p3676
I3867
sS'Herringbone (cloth)'
p3677
I4194
sS'Humeral veil'
p3678
I1373
sS'Beijing'
p3679
I4061
sS'Reticella'
p3680
I2266
sS'Annaba'
p3681
I1910
sS'Myeonje baegab'
p3682
I4017
sS'Office'
p3683
I19
sS'Haversack'
p3684
I3624
sS'Bossier Parish, Louisiana'
p3685
I758
sS'Anna Hazare'
p3686
I2853
sS'Aiguillette'
p3687
I2217
sS'Category:17th-century fashion'
p3688
I4938
sS'Khadi'
p3689
I2332
sS'Digital video recorder'
p3690
I1200
sS'Kim Jong-il'
p3691
I834
sS'Wearable technology'
p3692
I4363
sS'Babydoll'
p3693
I1972
sS'Peace conference'
p3694
I3300
sS'Hogeon'
p3695
I4144
sS'Dutch cap'
p3696
I3201
sS'Four-in-hand knot'
p3697
I2047
sS'Greater China'
p3698
I1479
sS'Film festival'
p3699
I200
sS'South Tyrol'
p3700
I886
sS'Pram suit'
p3701
I3372
sS'Godet (sewing)'
p3702
I4374
sS'Wedding anniversary'
p3703
I1507
sS'Khalat'
p3704
I2928
sS'Industrial Revolution'
p3705
I258
sS'Saxons'
p3706
I455
sS'Wetsuit boots'
p3707
I3085
sS'VHS'
p3708
I631
sS'Armenian dress'
p3709
I3395
sS'Mock interview'
p3710
I3660
sS'Project Runway'
p3711
I2082
sS'James Brudenell, 7th Earl of Cardigan'
p3712
I966
sS"Builders' rites"
p3713
I2599
sS'The Prom (Buffy the Vampire Slayer)'
p3714
I2407
sS'Trashion'
p3715
I3742
sS'Republic of the Congo'
p3716
I4156
sS'Parka'
p3717
I837
sS'Indian cuisine'
p3718
I1014
sS'Baggies (clothing)'
p3719
I3882
sS'Reuters'
p3720
I4092
sS'Fashion matrix'
p3721
I4697
sS'Beadwork'
p3722
I98
sS'Skinhead'
p3723
I441
sS'List of festivals in Fiji'
p3724
I2253
sS'Fashion cigarettes'
p3725
I2771
sS'2010s'
p3726
I543
sS'Nostalgia Night'
p3727
I3947
sS'Kymi, Greece'
p3728
I4727
sS'Wasco-Wishram'
p3729
I3369
sS'Georgia (country)'
p3730
I620
sS'Uttariya'
p3731
I3215
sS'Kosa silk'
p3732
I4320
sS'Bonnet (headgear)'
p3733
I1376
sS'Cornerstone'
p3734
I1312
sS'Category:Nonverbal communication'
p3735
I3042
sS'Demographics of Nepal'
p3736
I353
sS'Bodystocking'
p3737
I1147
sS'Viagens Interplanetarias'
p3738
I3694
sS'Jewish religious clothing'
p3739
I4291
sS'People for the Ethical Treatment of Animals'
p3740
I683
sS'Mufti (dress)'
p3741
I2988
sS'New Caledonia'
p3742
I354
sS'A-2 jacket'
p3743
I2927
sS'Battle Dress'
p3744
I2884
sS'Sports visor'
p3745
I3941
sS'Onam'
p3746
I1115
sS'Wings (haircut)'
p3747
I3199
sS'Nehemiah'
p3748
I2641
sS'Arrian'
p3749
I771
sS'Shirt stays'
p3750
I3581
sS'Binche lace'
p3751
I4011
sS'Pell Research'
p3752
I4978
sS'Category:Fashion'
p3753
I1750
sS'Roller printing on textiles'
p3754
I3847
sS'Moleskin'
p3755
I1246
sS'Interfacing'
p3756
I1605
sS'Tunisia'
p3757
I486
sS'Assyrian people'
p3758
I1079
sS"Monk's cloth"
p3759
I4555
sS'The Best Science Fiction Stories: 1951'
p3760
I3895
sS'Procession'
p3761
I2125
sS'Maya civilization'
p3762
I4048
sS'Comoros'
p3763
I134
sS'Active vacation'
p3764
I2232
sS'Cowhide'
p3765
I3455
sS'Ascot cap'
p3766
I2545
sS'Canadian military fur wedge cap'
p3767
I3622
sS'Royal Caribbean International'
p3768
I1588
sS'Clothing insulation'
p3769
I4778
sS'Khalsa'
p3770
I1409
sS'List of festivals in Indonesia'
p3771
I4954
sS'Ribbon'
p3772
I1139
sS'Plus fours'
p3773
I2286
sS'Windsor knot'
p3774
I1359
sS'Langota'
p3775
I4006
sS'Category:Outerwear'
p3776
I4993
sS'Boise, Idaho'
p3777
I549
sS'Asymmetric cut'
p3778
I3037
sS'South Asia'
p3779
I4269
sS'Wasp waist'
p3780
I1691
sS'Category:Youth events'
p3781
I4986
sS'Vyasa'
p3782
I1138
sS'Andalusians'
p3783
I2877
sS'Supreme Court of the United States'
p3784
I500
sS'M. Visvesvaraya'
p3785
I4744
sS'Gaelic Athletic Association'
p3786
I1045
sS'Wardrobe (clothing)'
p3787
I4227
sS'Prom Wars'
p3788
I3906
sS'Category:Fashion terminology'
p3789
I3574
sS'Trunks (clothing)'
p3790
I1961
sS'German language'
p3791
I211
sS'Category:Clothing controversies'
p3792
I3077
sS'Conference hall'
p3793
I3567
sS'Ludwig van Beethoven'
p3794
I302
sS'Emina Ilhamy'
p3795
I4999
sS'The Pirates of Penzance'
p3796
I606
sS'Henri, Grand Duke of Luxembourg'
p3797
I1204
sS'Tippet'
p3798
I2696
sS'Palestinian costumes'
p3799
I3889
sS'Beau Brummell'
p3800
I963
sS'Rebecca'
p3801
I4921
sS'Category:Management'
p3802
I1608
sS'Dolly Varden (costume)'
p3803
I4230
sS'Overfrock'
p3804
I3392
sS'Amaravathi (village), Guntur district'
p3805
I2153
sS'Thread (yarn)'
p3806
I4662
sS'Condoleezza Rice'
p3807
I848
sS'Choora'
p3808
I3799
sS'Mehndi'
p3809
I1423
sS'Body modification'
p3810
I798
sS'Jersey (fabric)'
p3811
I4165
sS'Cinco de Mayo'
p3812
I4470
sS'Money belt'
p3813
I1612
sS'Biblical clothing'
p3814
I4909
sS'Luyet'
p3815
I3441
sS'Domestic worker'
p3816
I1512
sS'Sun protective clothing'
p3817
I3041
sS'Hanukkah'
p3818
I162
sS'National Football Conference'
p3819
I992
sS'Sign language glove'
p3820
I1112
sS'Jazerant'
p3821
I4611
sS'Geneva gown'
p3822
I1872
sS'Rigveda'
p3823
I4886
sS'Cat eye glasses'
p3824
I4028
sS'Plus-size clothing'
p3825
I2947
sS'Claire McCardell'
p3826
I2878
sS'Guimpe'
p3827
I4735
sS'Mughal-e-Azam'
p3828
I1403
sS'Category:Wedding'
p3829
I1617
sS'The New Islander'
p3830
I4473
sS'Nehru jacket'
p3831
I1647
sS'Eisenhower jacket'
p3832
I3129
sS'Domino mask'
p3833
I3584
sS'Category:Social events'
p3834
I3832
sS'Swedish festivities'
p3835
I3398
sS'Satya Paul'
p3836
I4875
sS'Hanfu movement'
p3837
I3611
sS'Peineta (comb)'
p3838
I4380
sS'Polonaise (clothing)'
p3839
I2868
sS'Brisbane'
p3840
I953
sS'Boyshorts'
p3841
I3277
sS'Train (clothing)'
p3842
I3415
sS'Southwestern United States'
p3843
I917
sS'Grandfather shirt'
p3844
I4277
sS'Quad-City Times'
p3845
I2367
sS'Greatcoat'
p3846
I3482
sS'Coif'
p3847
I2389
sS'Pieter Brueghel the Younger'
p3848
I694
sS'National Peanut Festival'
p3849
I3246
sS'Button blanket'
p3850
I3638
sS'Naga shawl'
p3851
I3999
sS'Category:Party stores'
p3852
I4591
sS'Board of directors'
p3853
I128
sS'Turkey'
p3854
I3645
sS'Durumagi'
p3855
I4152
sS'Corinthian helmet'
p3856
I2255
sS'Stole (shawl)'
p3857
I2227
sS'Folk dance'
p3858
I208
sS'Green jersey'
p3859
I1649
sS'Midsummer'
p3860
I1006
sS'Punjab, India'
p3861
I4345
sS'Maximilian I, Holy Roman Emperor'
p3862
I566
sS'Sleeved blanket'
p3863
I3783
sS'Portmanteau (luggage)'
p3864
I4818
sS'Never Been Kissed'
p3865
I2314
sS'Lionel Logue'
p3866
I4587
sS'Venetian-style shoe'
p3867
I3905
sS'Madras (cloth)'
p3868
I939
sS'Gajra'
p3869
I4635
sS'Patten (shoe)'
p3870
I3576
sS'Petasos'
p3871
I1702
sS'ASTM International'
p3872
I1644
sS'Microfiber'
p3873
I1417
sS'Diving suit'
p3874
I1165
sS'List of festivals in the United States'
p3875
I875
sS'Norway'
p3876
I346
sS'A-line'
p3877
I3634
sS'Stormy Kromer cap'
p3878
I4743
sS'Epiphany (holiday)'
p3879
I1762
sS'Aegle marmelos'
p3880
I2259
sS'Chalte Chalte (1976 film)'
p3881
I4853
sS'Purdah'
p3882
I1448
sS'Chinese alcoholic beverages'
p3883
I998
sS'Cotton duck'
p3884
I2837
sS'Israel Defense Forces'
p3885
I569
sS'Snowmobile suit'
p3886
I4885
sS'Fess Parker'
p3887
I1765
sS'Public holidays in India'
p3888
I1346
sS'Paludamentum'
p3889
I3748
sS'Collar (clothing)'
p3890
I2679
sS'Pest control'
p3891
I1645
sS'Plimsoll shoe'
p3892
I2354
sS'Passementerie'
p3893
I3508
sS'Vivienne Westwood'
p3894
I812
sS'Dandy'
p3895
I180
sS'Current Biology'
p3896
I3899
sS'Karl Lagerfeld'
p3897
I909
sS'Revers'
p3898
I4029
sS'John L. Sullivan'
p3899
I1623
sS'Old French'
p3900
I1160
sS'Armani'
p3901
I1742
sS'China Daily'
p3902
I1577
sS'Annette Kellermann'
p3903
I1830
sS'Kalimavkion'
p3904
I2248
sS'Big hair'
p3905
I2845
sS'Thai fisherman pants'
p3906
I1887
sS'Vest'
p3907
I1141
sS'1948 Summer Olympics'
p3908
I579
sS'Sambalpuri saree'
p3909
I4406
sS'List of brassiere designs'
p3910
I3351
sS'Recycling'
p3911
I717
sS'Category:Formal wear'
p3912
I51
sS'Gigi Hadid'
p3913
I4980
sS'Culture of Cornwall'
p3914
I2278
sS'Cosmopolitan (magazine)'
p3915
I793
sS'Ugly Betty'
p3916
I2968
sS'Jersey (clothing)'
p3917
I1363
sS'Abu Dhabi'
p3918
I4082
sS"Miner's habit"
p3919
I4889
sS'Tambour lace'
p3920
I2267
sS'Cork hat'
p3921
I3506
sS'Field sign'
p3922
I3318
sS'Elopement (marriage)'
p3923
I1499
sS'Palestine (region)'
p3924
I1827
sS'Hemline'
p3925
I3020
sS'Lacoste'
p3926
I2115
sS'Motorcycle boot'
p3927
I1839
sS'Hat tax'
p3928
I3095
sS'School formal'
p3929
I3114
sS'Hindu'
p3930
I235
sS'Longcloth'
p3931
I2667
sS'Costa Rica'
p3932
I139
sS'Die Zeit'
p3933
I1077
sS'Chaitra'
p3934
I1803
sS'Kaupinam'
p3935
I4324
sS'Steek'
p3936
I3320
sS'Bangladesh University of Textiles'
p3937
I4588
sS'Colour fastness'
p3938
I4706
sS'Hindi'
p3939
I234
sS'Spinning (textiles)'
p3940
I435
sS'Category:Conferences'
p3941
I2687
sS'Alpaca'
p3942
I4057
sS'True Religion'
p3943
I4841
sS'Awayday'
p3944
I1589
sS'Wedding dress of Kate Middleton'
p3945
I4686
sS'Fashion Design Council of India'
p3946
I4912
sS'Sarong'
p3947
I1561
sS'Sabot (shoe)'
p3948
I4811
sS'Papal Slippers'
p3949
I2133
sS'Exotic Erotic Ball'
p3950
I3269
sS'Negligee'
p3951
I1977
sS'British Airways'
p3952
I113
sS'Kenneth Cole (designer)'
p3953
I1705
sS'Abdullah of Saudi Arabia'
p3954
I4110
sS'Mixed martial arts clothing'
p3955
I4163
sS'Travel pack'
p3956
I3862
sS'European Australians'
p3957
I4346
sS'Kurdish clothing'
p3958
I2825
sS'Wedding'
p3959
I4
sS'M98 battle uniform'
p3960
I3192
sS'Afro-textured hair'
p3961
I3449
sS'History of jewellery in Ukraine'
p3962
I2750
sS'Screen printing'
p3963
I582
sS'Laticlave'
p3964
I3070
sS'Chakravartin'
p3965
I2536
sS'Krama'
p3966
I2012
sS'Lord Anthony'
p3967
I3339
sS'Tutankhamun'
p3968
I489
sS'Bill Clinton'
p3969
I93
sS'Denmark'
p3970
I732
sS'Evening glove'
p3971
I2621
sS'Bath, Somerset'
p3972
I573
sS'Preppy'
p3973
I1128
sS'Toga party'
p3974
I1704
sS'Qiviut'
p3975
I2400
sS'Multi Fibre Arrangement'
p3976
I1908
sS'Falsies'
p3977
I1468
sS'Wonsam'
p3978
I4264
sS'Footwear'
p3979
I558
sS'Saddle shoe'
p3980
I3219
sS'Nagma'
p3981
I3419
sS"Miner's cap"
p3982
I4891
sS"Printer's hat"
p3983
I3958
sS'Grenadine (cloth)'
p3984
I4217
sS'Pectoral cross'
p3985
I2244
sS'Tyga'
p3986
I3968
sS'Gimp (thread)'
p3987
I2291
sS'Belt buckle'
p3988
I2566
sS'Clog'
p3989
I1220
sS'Santa suit'
p3990
I2924
sS'Realia (library science)'
p3991
I4440
sS'Estonia'
p3992
I4556
sS'Eastern Orthodox Church'
p3993
I193
sS'It Bag'
p3994
I3275
sS'Esplanade'
p3995
I1763
sS'Formal Thai national costume'
p3996
I2689
sS'Shalwar kameez'
p3997
I4597
sS'Flak jacket'
p3998
I1850
sS'Cappello Alpino'
p3999
I4297
sS'Arbor Day'
p4000
I84
sS'Nudity'
p4001
I4075
sS'Trews'
p4002
I2577
sS'Qeleshe'
p4003
I1473
sS'Alta (dye)'
p4004
I4634
sS'Skirt'
p4005
I1024
sS'B. J. Thomas'
p4006
I891
sS'Blanket stitch'
p4007
I3556
sS'Police'
p4008
I390
sS'Suriname'
p4009
I433
sS'Hip hop music'
p4010
I4079
sS'Frieze (textile)'
p4011
I3484
sS'Ribbon-cutting ceremony'
p4012
I3030
sS'ASAP Rocky'
p4013
I4753
sS'Lensless glasses'
p4014
I4869
sS'Skeleton suit'
p4015
I2856
sS'Jomala'
p4016
I1601
sS'Focale'
p4017
I2999
sS'Netherlands'
p4018
I342
sS'National costume of Indonesia'
p4019
I4827
sS'Crop top'
p4020
I2031
sS'French twist (hairstyle)'
p4021
I2443
sS'Party'
p4022
I3
sS'French braid'
p4023
I2001
sS'Paduasoy'
p4024
I4569
sS'Goth subculture'
p4025
I225
sS'Charitable prom organizations'
p4026
I3196
sS'Anything Other Than Naked'
p4027
I4669
sS'The One with the Prom Video'
p4028
I1812
sS'Political houseparty'
p4029
I3232
sS'Business tourism'
p4030
I2889
sS'Itawamba County School District'
p4031
I3690
sS'1956 Summer Olympics'
p4032
I741
sS'Drink'
p4033
I170
sS'Henry VIII of England'
p4034
I241
sS'Plains Indians'
p4035
I1957
sS'Silk Road'
p4036
I650
sS'Christmas'
p4037
I151
sS'History of Auvergne'
p4038
I2113
sS'Montera'
p4039
I2410
sS'Clothing in the Ragtime Era'
p4040
I4429
sS'KFC'
p4041
I550
sS'Reconstructionist Judaism'
p4042
I421
sS'Etruscan jewelry'
p4043
I3065
sS"Taki's Magazine"
p4044
I3718
sS'Ultrasuede'
p4045
I3462
sS'Business Casual (Beep Beep album)'
p4046
I2920
sS'Friends'
p4047
I205
sS'Australian Aboriginal fibrecraft'
p4048
I3705
sS'Category:1950 short stories'
p4049
I3382
sS'Sexual intercourse'
p4050
I450
sS'Corset'
p4051
I799
sS'Livery collar'
p4052
I2681
sS'Museum of International Folk Art'
p4053
I3268
sS'Slingback'
p4054
I3814
sS'Pantalettes'
p4055
I2629
sS'Wellington boot'
p4056
I951
sS'Yanggwan'
p4057
I4724
sS'Casquette'
p4058
I3301
sS'Sacred mysteries'
p4059
I2319
sS'Bootee'
p4060
I1931
sS'Sameera Reddy'
p4061
I2668
sS'New York Comic Con'
p4062
I2817
sS'Amauti'
p4063
I3410
sS'Eid al-Fitr'
p4064
I842
sS'Monmouth cap'
p4065
I4791
sS'Clint Eastwood'
p4066
I586
sS'Panling Lanshan'
p4067
I4317
sS'Category:1950s fashion'
p4068
I2942
sS'Bridegroom'
p4069
I4601
sS'Long underwear'
p4070
I1464
sS'Braies'
p4071
I4539
sS'Pampootie'
p4072
I4528
sS'Boeotian helmet'
p4073
I3840
sS'Islamic marital practices'
p4074
I4465
sS'Anglicanism'
p4075
I79
sS'Denim'
p4076
I697
sS'Rhinestone'
p4077
I1985
sS'Albert, Prince Consort'
p4078
I731
sS'Periplus of the Erythraean Sea'
p4079
I1083
sS'Jawbreaker (film)'
p4080
I2762
sS'One Direction'
p4081
I4698
sS'The Philosophy of Andy Warhol'
p4082
I3665
sS'Shoe buckle'
p4083
I4680
sS'Greece'
p4084
I214
sS'United States Public Health Service Commissioned Corps'
p4085
I1583
sS'Daura-Suruwal'
p4086
I4590
sS'Emperor of Japan'
p4087
I192
sS'Glengarry'
p4088
I1863
sS'Sateen'
p4089
I2419
sS'Gauntlet (glove)'
p4090
I2083
sS'5 Seconds of Summer'
p4091
I4887
sS'Blouse'
p4092
I1458
sS'Gap Inc.'
p4093
I4923
sS'Jodhpuri'
p4094
I2561
sS"Chang'ao"
p4095
I4313
sS'Golden Week (Japan)'
p4096
I1287
sS'Geoffrey Beene'
p4097
I1779
sS'Modern Paganism'
p4098
I362
sS'Job interview'
p4099
I2182
sS'Power dressing'
p4100
I3548
sS'Hatstand'
p4101
I2890
sS'Shell cordovan'
p4102
I1564
sS'Leading strings'
p4103
I3364
sS'Clothing fetish'
p4104
I3577
sS'Boater'
p4105
I1342
sS'Federal holidays in the United States'
p4106
I1004
sS'Gossypium barbadense'
p4107
I3254
sS'Mitre'
p4108
I1381
sS'Augustine of Hippo'
p4109
I85
sS'Elvis Presley'
p4110
I184
sS'Puttee'
p4111
I2391
sS'Brassard'
p4112
I1906
sS'Category:Deviance and social control'
p4113
I4820
sS'Bisht (clothing)'
p4114
I5031
sS'Batiste'
p4115
I3156
sS'List of multinational festivals and holidays'
p4116
I1251
sS'Caul (headgear)'
p4117
I3633
sS'Aigrette'
p4118
I2414
sS'Northeastern United States'
p4119
I1296
sS'Peter Pan collar'
p4120
I2664
sS'Business Casual (EP)'
p4121
I4972
sS'Black beret'
p4122
I2321
sS'Green eyeshade'
p4123
I3143
sS'Oilskin'
p4124
I2135
sS'Isabel Toledo'
p4125
I3723
sS'Pointinini'
p4126
I4167
sS'Farthingale'
p4127
I1670
sS'Dye'
p4128
I174
sS'Cut-off'
p4129
I3096
sS'Bollywood'
p4130
I120
sS'Headpiece'
p4131
I1345
sS'Hebrew Bible'
p4132
I960
sS'Puthandu'
p4133
I2261
sS'Velveteen'
p4134
I2399
sS'Richard III of England'
p4135
I424
sS'William Shakespeare'
p4136
I521
sS'Boot fetishism'
p4137
I2093
sS'Labor Day'
p4138
I4104
sS'Car'
p4139
I3805
sS'Cap'
p4140
I1331
sS'Driving moccasins'
p4141
I4801
sS'Aztec'
p4142
I643
sS'Bakya'
p4143
I3223
sS'Gaming law'
p4144
I2953
sS'Celtic nations'
p4145
I2812
sS'Ramie'
p4146
I1485
sS'Sindh'
p4147
I473
sS'Abaya'
p4148
I1745
sS'Tussar silk'
p4149
I4425
sS'Lugade'
p4150
I3015
sS'Polyethylene terephthalate'
p4151
I1123
sS'Dush-toh'
p4152
I4455
sS'Greenland'
p4153
I215
sS'Jared Leto'
p4154
I1352
sS'Tagelmust'
p4155
I2032
sS'Post-vacation blues'
p4156
I3546
sS'Ephod'
p4157
I1467
sS'1900s in Western fashion'
p4158
I3522
sS'Dover Publications'
p4159
I1618
sS'Karvalakki'
p4160
I3824
sS'Naked party'
p4161
I2911
sS'Bar and Bat Mitzvah'
p4162
I635
sS'Get (divorce document)'
p4163
I2670
sS'Mobile dating'
p4164
I2983
sS'Mesha Sankranti'
p4165
I5016
sS'Rave'
p4166
I590
sS'Triglavka'
p4167
I4805
sS'Bra size'
p4168
I3358
sS'Lanvin (company)'
p4169
I3900
sS'Dandan Oilik'
p4170
I3699
sS'The Rules'
p4171
I2891
sS'Woolen'
p4172
I1193
sS'Plain weave'
p4173
I3069
sS'Wedding dress'
p4174
I20
sS'Template:Clothing'
p4175
I53
sS'Malaysian school uniform'
p4176
I4214
sS'Parachute pants'
p4177
I2122
sS'Morphsuits'
p4178
I4729
sS'Union suit'
p4179
I1463
sS'Tamil calendar'
p4180
I2150
sS'American Apparel'
p4181
I2310
sS'Karlie Kloss'
p4182
I3937
sS'Tangzhuang'
p4183
I3626
sS'Calgary'
p4184
I3916
sS'Patola Sari'
p4185
I4926
sS'Nakshi kantha'
p4186
I3898
sS'Gook (headgear)'
p4187
I4897
sS'George Washington'
p4188
I212
sS'Wrestling singlet'
p4189
I3137
sS'Yatra'
p4190
I3915
sS'Wehrmacht uniforms'
p4191
I3872
sS'Party dress'
p4192
I4736
sS'Secretary of State for the Environment, Transport and the Regions'
p4193
I1216
sS'James Stephenson'
p4194
I1986
sS'List of textile fibres'
p4195
I4747
sS'List of crochet stitches'
p4196
I3870
sS'Headgear (martial arts)'
p4197
I2960
sS'Green beret'
p4198
I1639
sS'Mormon fundamentalism'
p4199
I1308
sS'Ihram clothing'
p4200
I3093
sS'Kitten heel'
p4201
I1709
sS'Spread tow fabric'
p4202
I4512
sS'China'
p4203
I135
sS'Executive suite'
p4204
I4390
sS'Rimless eyeglasses'
p4205
I4755
sS'Bahag (garment)'
p4206
I3746
sS'Palembang'
p4207
I985
sS'Gache'
p4208
I3806
sS'Layered hair'
p4209
I2776
sS'Floating canvas'
p4210
I3233
sS'Teesri Manzil'
p4211
I2932
sS'John Stanley (composer)'
p4212
I955
sS'Krizia'
p4213
I3521
sS'Wikipedia:Sockpuppet investigations/Hoho24'
p4214
I5050
sS'Category:Wedding dresses'
p4215
I4692
sS'Otavalo (city)'
p4216
I2466
sS'Wyatt Earp'
p4217
I1259
sS'Riding coat'
p4218
I4479
sS'Safari jacket'
p4219
I1167
sS'Cavalier hat'
p4220
I3360
sS'Kkachi durumagi'
p4221
I4153
sS'Toupha'
p4222
I4076
sS'Byssus'
p4223
I1336
sS'Yak lace'
p4224
I4861
sS'Ikat'
p4225
I1559
sS'Battledress'
p4226
I2136
sS'Spoon busk'
p4227
I1776
sS'Fashion forecasting'
p4228
I4674
sS'Malaysian batik'
p4229
I3801
sS'Gho'
p4230
I2514
sS'Jeremiah Clarke'
p4231
I1437
sS'Soutache'
p4232
I3849
sS'Engolpion'
p4233
I2221
sS'Bulgaria'
p4234
I100
sS'Teen dating violence'
p4235
I3724
sS"Hors d'oeuvre"
p4236
I770
sS'Persian weave'
p4237
I2393
sS'Angola'
p4238
I68
sS'Table setting'
p4239
I1354
sS'Haferlschuh'
p4240
I4308
sS'Carding'
p4241
I894
sS'Genital jewellery'
p4242
I3154
sS'Maillot'
p4243
I2655
sS'Hairnet'
p4244
I2712
sS'Play (theatre)'
p4245
I4482
sS'Formalwear'
p4246
I27
sS'Jesus'
p4247
I1820
sS'Party hat'
p4248
I2351
sS'Debby Herbenick'
p4249
I4469
sS'Irish clothing'
p4250
I4871
sS'Sauna suit'
p4251
I4498
sS'Bobby sock'
p4252
I2874
sS'Gagra choli'
p4253
I3830
sS'International Talk Like a Pirate Day'
p4254
I4206
sS'Engineer boot'
p4255
I2540
sS'Australian Fashion Week'
p4256
I3291
sS'Ceremony'
p4257
I13
sS'Sushmita Sen'
p4258
I1502
sS'Scissors-glasses'
p4259
I3788
sS'Band collar'
p4260
I3650
sS'Silhouette'
p4261
I1718
sS'Same-sex marriage in Uruguay'
p4262
I3241
sS'Sweater'
p4263
I930
sS'Category:Human appearance'
p4264
I1694
sS'Martin Luther King, Jr.'
p4265
I331
sS'Academic stole'
p4266
I2912
sS'Jika-tabi'
p4267
I3189
sS'Shmarjet'
p4268
I3927
sS'Prom'
p4269
I17
sS'Parure'
p4270
I2471
sS'Foulard'
p4271
I3669
sS'University of California, Berkeley'
p4272
I509
sS'Party plan'
p4273
I1877
sS'Shoemaking'
p4274
I1708
sS'Cornrows'
p4275
I1766
sS'Crinoline'
p4276
I1511
sS'FashionTelevision'
p4277
I2864
sS'Summit (meeting)'
p4278
I2690
sS'Iran'
p4279
I256
sS'Category:Parties'
p4280
I1548
sS'East Room'
p4281
I2982
sS'Sgian-dubh'
p4282
I1660
sS'Choker'
p4283
I1476
sS'Bereavement in Judaism'
p4284
I2498
sS'Phoebe Philo'
p4285
I3675
sS'Petersham ribbon'
p4286
I4873
sS'Winter carnival'
p4287
I5054
sS'Bodice'
p4288
I1980
sS'Jejemon'
p4289
I4501
sS'History of silk'
p4290
I3602
sS'Michael Kors'
p4291
I2458
sS'Iraq'
p4292
I3305
sS'Tjurunga'
p4293
I2510
sS'Kasuti'
p4294
I3606
sS'Martin Luther King, Jr. Day'
p4295
I895
sS'Feather boa'
p4296
I2165
sS'2000s in fashion'
p4297
I2879
sS'Pungcha'
p4298
I4139
sS'Buyer (fashion)'
p4299
I3949
sS'Slip (clothing)'
p4300
I2301
sS'Sparrow Hills'
p4301
I2518
sS'Bride'
p4302
I746
sS'Chima jeogori'
p4303
I2258
sS'Petite size'
p4304
I2841
sS'Hanten'
p4305
I4389
sS'Broomstick lace'
p4306
I1735
sS'Crown dependencies'
p4307
I1195
sS'Amazon basin'
p4308
I1313
sS'Cache-sexe'
p4309
I3402
sS'Zephyr (garment)'
p4310
I2732
sS'Boxing glove'
p4311
I2819
sS'Category:Festivals'
p4312
I1596
sS'Caresse Crosby'
p4313
I1405
sS'Halston'
p4314
I2859
sS'Business park'
p4315
I2173
sS'Sahib Bibi Aur Ghulam'
p4316
I3038
sS'Sahrawi Arab Democratic Republic'
p4317
I4933
sS'Kanye West'
p4318
I1408
sS'Ring finger'
p4319
I1692
sS"Sou'wester"
p4320
I4695
sS'Sindhis'
p4321
I1309
sS'Abacost'
p4322
I3153
sS'American Teen'
p4323
I3404
sS'Buckskins'
p4324
I2270
sS'Persian embroidery'
p4325
I2996
sS'Barbute'
p4326
I2816
sS'Tunicle'
p4327
I1390
sS'Bikini Atoll'
p4328
I988
sS'New York'
p4329
I3374
sS'Diabetic sock'
p4330
I3640
sS'Competitive swimwear'
p4331
I1962
sS'Che Guevara in fashion'
p4332
I4609
sS'Bands (neckwear)'
p4333
I3001
sS'Business casual'
p4334
I1422
sS'Glen plaid'
p4335
I4193
sS'Gandhara'
p4336
I1379
sS'Facekini'
p4337
I4894
sS'Drew Barrymore'
p4338
I168
sS'Sydney Royal Easter Show'
p4339
I2108
sS'Gold rush'
p4340
I787
sS'Bead crochet'
p4341
I3850
sS'Day of the Dead'
p4342
I633
sS'Backpack'
p4343
I926
sS'Full moon'
p4344
I207
sS'Sock'
p4345
I4090
sS'Clothing in the ancient world'
p4346
I3579
sS'Bishop Andrewes cap'
p4347
I4398
sS'David Gandy'
p4348
I4189
sS'Popover (dress)'
p4349
I5025
sS'SchwabenQuellen'
p4350
I1770
sS'Doobon coat'
p4351
I4397
sS'Four Winds hat'
p4352
I2026
sS'Bangs (hair)'
p4353
I3384
sS'Hockey helmet'
p4354
I1450
sS'Interview'
p4355
I16
sS'Frock'
p4356
I1784
sS'Panties'
p4357
I1202
sS'Visor'
p4358
I1579
sS'We Wish You a Merry Christmas'
p4359
I2473
sS'Frank Dicksee'
p4360
I2876
sS'Anzac Day'
p4361
I616
sS'Republic of Macedonia'
p4362
I4354
sS'Epitrachelion'
p4363
I1893
sS'Officer of arms'
p4364
I1516
sS'Compression garment'
p4365
I3896
sS'IAC (company)'
p4366
I1878
sS'Slap bracelet'
p4367
I2543
sS'Government Houses of the British Empire and Commonwealth'
p4368
I2862
sS'Makarapa'
p4369
I4332
sS'Narciso Rodriguez'
p4370
I2897
sS'Ballet shoe'
p4371
I2765
sS'Cavalry in the American Civil War'
p4372
I2377
sS'Salako'
p4373
I4776
sS'Brocade'
p4374
I3333
sS'Gladstone bag'
p4375
I3513
sS'Velcro'
p4376
I4204
sS'Architectonic jewellery'
p4377
I4054
sS'Vedas'
p4378
I2048
sS'Pueblo'
p4379
I1098
sS'Victorian fashion'
p4380
I813
sS'Main Hoon Na'
p4381
I2024
sS'Stiletto heel'
p4382
I2092
sS'Tudor bonnet'
p4383
I2132
sS'Birkin bag'
p4384
I3133
sS'Indus Valley Civilisation'
p4385
I608
sS'Northern Ireland'
p4386
I350
sS'Folk costume'
p4387
I24
sS'Oxford (cloth)'
p4388
I2381
sS'Marathi people'
p4389
I2965
sS'Muumuu'
p4390
I1609
sS'Academic dress'
p4391
I1186
sS'Bascinet'
p4392
I1501
sS'Royal Navy'
p4393
I422
sS'University of Canterbury'
p4394
I513
sS'Loincloth'
p4395
I897
sS'Bill Blass'
p4396
I1260
sS'Abraham'
p4397
I80
sS'Lengberg Castle'
p4398
I4878
sS'Sokutai'
p4399
I3933
sS'Far East'
p4400
I209
sS'The Millionaire Matchmaker'
p4401
I3908
sS'Category:Lists of observances'
p4402
I5022
sS'Handkerchief'
p4403
I1080
sS'Category:Lists of religious festivals'
p4404
I5045
sS'Jinbei'
p4405
I1793
sS'Kesh (Sikhism)'
p4406
I3464
sS'Briefs'
p4407
I3375
sS'Pantsuit'
p4408
I2673
sS'Dress shoe'
p4409
I2836
sS'Nantucket'
p4410
I689
sS'Fustanella'
p4411
I1987
sS'Le Smoking'
p4412
I2997
sS'Dance costume'
p4413
I50
sS'Adi Godrej'
p4414
I1915
sS'American frontier'
p4415
I1062
sS'Kozhukh'
p4416
I3912
sS'Temple ring'
p4417
I2944
sS'Apsara'
p4418
I763
sS'Utility clothing'
p4419
I4789
sS'Sagum'
p4420
I3479
sS'Mounteere Cap'
p4421
I4351
sS'Boss of the Plains'
p4422
I4309
sS'Index of fashion articles'
p4423
I47
sS'Harem pants'
p4424
I3893
sS'Paris'
p4425
I378
sS"Buddha's Birthday"
p4426
I2205
sS'Sampot Samloy'
p4427
I4414
sS'Houppelande'
p4428
I3231
sS'Carnival in Germany, Switzerland and Austria'
p4429
I4524
sS'Football boot'
p4430
I2299
sS"Chef's uniform"
p4431
I2906
sS'Pinafore'
p4432
I2327
sS'Category:Swimsuits'
p4433
I1775
sS'Fashion Institute of Technology'
p4434
I1414
sS'Catsuit'
p4435
I1145
sS'Homa (ritual)'
p4436
I2995
sS'Uniqlo'
p4437
I2746
sS'Ferreruolo'
p4438
I4775
sS'Raccoon coat'
p4439
I3549
sS'Hnyat-phanat'
p4440
I3951
sS'Ruffle'
p4441
I3434
sS'In kind'
p4442
I2772
sS'Boyfriend (fashion)'
p4443
I994
sS'MDMA'
p4444
I191
sS'Cagoule'
p4445
I3613
sS'Category:Cosplay'
p4446
I2323
sS'Uppsala University'
p4447
I504
sS'Macaroni (fashion)'
p4448
I2102
sS'Palla (garment)'
p4449
I3240
sS'African Americans'
p4450
I86
sS'Veilkini'
p4451
I4384
sS'Clothing material'
p4452
I4290
sS'Bhavana Balsavar'
p4453
I4935
sS'Punk fashion'
p4454
I784
sS'Slim-fit pants'
p4455
I3237
sS'Mirrored sunglasses'
p4456
I2214
sS'General assembly'
p4457
I1509
sS'Value (ethics)'
p4458
I2850
sS'Secret dating'
p4459
I4950
sS'Houston Chronicle'
p4460
I1061
sS'Tanzania'
p4461
I483
sS'University of London'
p4462
I685
sS'Bench shirt'
p4463
I3753
sS'Brittany'
p4464
I562
sS'Yarn'
p4465
I630
sS'Chastity belt'
p4466
I686
sS'Marie Anne de Cupis de Camargo'
p4467
I2589
sS'Ulster coat'
p4468
I3691
sS'Juncaceae'
p4469
I1325
sS'Zephyrina Jupon'
p4470
I4774
sS'Poodle skirt'
p4471
I3184
sS'Carrie (novel)'
p4472
I701
sS'Caligae'
p4473
I2975
sS'Sagging (fashion)'
p4474
I2581
sS'Lurex'
p4475
I2646
sS'Shoe insert'
p4476
I3218
sS'Rihanna'
p4477
I2325
sS'Promised Messiah Day'
p4478
I4845
sS'Crimean War'
p4479
I607
sS'Tough Love (TV series)'
p4480
I4388
sS'New Jersey'
p4481
I360
sS'Japanese street fashion'
p4482
I2656
sS'IBM card sorter'
p4483
I956
sS'Columbia University Press'
p4484
I2216
sS'Lining (sewing)'
p4485
I4557
sS'Cooper A-2 jacket'
p4486
I876
sS'Do-rag'
p4487
I1968
sS'Speedsuit'
p4488
I3243
sS'1850s in Western fashion'
p4489
I2634
sS'International Labour Organization'
p4490
I260
sS'Fashion week'
p4491
I1673
sS'Quilting'
p4492
I404
sS'Wrap (clothing)'
p4493
I4447
sS'National costumes of Poland'
p4494
I4855
sS'Beaujolais nouveau'
p4495
I1945
sS'Koukoulion'
p4496
I3954
sS'Kilt accessories'
p4497
I2865
sS'Sabaton'
p4498
I1859
sS'Afghanistan'
p4499
I70
sS'Shilpa Shetty'
p4500
I4037
sS'Sheitel'
p4501
I3073
sS'Titovka (cap)'
p4502
I4806
sS'Spider-Man'
p4503
I457
sS'German Unity Day'
p4504
I218
sS'Wikipedia'
p4505
I3008
sS'Top hat'
p4506
I1332
sS'Love beads'
p4507
I1650
sS'United States Public Health Service'
p4508
I1009
sS'Hindu wedding'
p4509
I2371
sS'Swadeshi movement'
p4510
I2179
sS'Daxiushan'
p4511
I4441
sS'2010s in fashion'
p4512
I60
sS'Cross necklace'
p4513
I4833
sS'Vanuatu'
p4514
I516
sS'Aso Oke hat'
p4515
I3791
sS"Jehovah's Witnesses"
p4516
I636
sS'The Queanbeyan Age'
p4517
I2142
sS'Kacchera'
p4518
I3103
sS'Sack-back gown'
p4519
I4067
sS'Ski cap'
p4520
I880
sS'Mukluk'
p4521
I2107
sS'Edward VI of England'
p4522
I194
sS'International observance'
p4523
I1993
sS'Frida Giannini'
p4524
I4586
sS'Type 07'
p4525
I3796
sS'Berlin Iron Jewellery'
p4526
I4016
sS'Bobby pin'
p4527
I2180
sS'Codpiece'
p4528
I879
sS'Boxer shorts'
p4529
I1738
sS'Kandy Esala Perahera'
p4530
I2958
sS'Wrapper (clothing)'
p4531
I2840
sS'Kittel'
p4532
I2128
sS'Guimet Museum'
p4533
I2235
sS'Prahlada'
p4534
I4477
sS'British diaspora in Africa'
p4535
I2036
sS'Dominican Republic'
p4536
I171
sS'Attifet'
p4537
I4722
sS'Clothing in ancient Greece'
p4538
I4242
sS'1860s in Western fashion'
p4539
I1815
sS'Australia Day'
p4540
I4237
sS'Concert T-shirt'
p4541
I3099
sS'Cast-iron architecture'
p4542
I3394
sS'Gale (publisher)'
p4543
I2716
sS'Bhanu Athaiya'
p4544
I3149
sS'Hook-and-eye closure'
p4545
I3922
sS'Roland Barthes'
p4546
I904
sS'Kashmir'
p4547
I288
sS'Fundoshi'
p4548
I1710
sS'Dumpra'
p4549
I4906
sS'Musical theatre'
p4550
I334
sS'Mahalakshmi Vrata'
p4551
I2114
sS'Bachelorette party'
p4552
I2016
sS'Placket'
p4553
I2809
sS'Maroon beret'
p4554
I3465
sS'Lohengrin (opera)'
p4555
I556
sS'Vienna Opera Ball'
p4556
I2020
sS'Antiochian Orthodox Christian Archdiocese of North America'
p4557
I1455
sS'Zari'
p4558
I1904
sS'Peshawari chappal'
p4559
I4733
sS'Wayuu people'
p4560
I2991
sS'Chengziguan'
p4561
I5018
sS'Cowl'
p4562
I2106
sS'Mino (straw cape)'
p4563
I4995
sS'POW bracelet'
p4564
I4719
sS'Template:Academic dress'
p4565
I4946
sS'Category:Educational stages'
p4566
I2467
sS'George W. Crane'
p4567
I4107
sS'Uniform beret'
p4568
I4571
sS'Rail transport'
p4569
I415
sS'Western wear'
p4570
I34
sS'Quebec'
p4571
I3349
sS'Desperate Scousewives'
p4572
I4762
sS'Mohammed Alim Khan'
p4573
I2615
sS'Category:Tourist activities'
p4574
I1549
sS'Muff (handwarmer)'
p4575
I3950
sS'Grotulja'
p4576
I4847
sS'Erusin'
p4577
I4416
sS'Garba (dance)'
p4578
I1818
sS'Priyanka Chopra'
p4579
I1631
sS'Guinea'
p4580
I216
sS'White tie'
p4581
I1184
sS'Luxembourg'
p4582
I290
sS'Andorra'
p4583
I65
sS'Ironing'
p4584
I4249
sS'Foundation garment'
p4585
I2609
sS"April Fools' Day"
p4586
I3644
sS'Hem'
p4587
I1667
sS'Holiday'
p4588
I2
sS'Utility cover'
p4589
I3858
sS'June 24'
p4590
I272
sS'Coonskin cap'
p4591
I2537
sS'Go-go boot'
p4592
I3507
sS'Ball gown'
p4593
I2065
sS'Altdeutsche Tracht'
p4594
I3545
sS'Sooranporu'
p4595
I4925
sS'Festa Junina'
p4596
I2277
sS'Tamar (Genesis)'
p4597
I1084
sS'Saltwater sandals'
p4598
I3975
sS'Wreath (attire)'
p4599
I3851
sS'Zentai'
p4600
I1627
sS'Visa (document)'
p4601
I1169
sS'Maniple (vestment)'
p4602
I1370
sS'Wakeboarding'
p4603
I528
sS"Breakfast at Tiffany's (novella)"
p4604
I3235
sS'Cowichan knitting'
p4605
I4402
sS'Thailand'
p4606
I484
sS'Sylvia Ann Hewlett'
p4607
I3684
sS'Clerical collar'
p4608
I2231
sS'Toronto'
p4609
I695
sS'Holdall'
p4610
I3517
sS'East India House'
p4611
I2624
sS'Topman'
p4612
I3389
sS'Dostana (2008 film)'
p4613
I3945
sS'Highland dress'
p4614
I2057
sS'One Tree Hill (TV series)'
p4615
I1749
sS'Terrycloth'
p4616
I2832
sS'Namba (clothing)'
p4617
I3706
sS'Chino cloth'
p4618
I2055
sS"St. Peter's Basilica"
p4619
I723
sS'Eid al-Adha'
p4620
I1217
sS'Lapel pin'
p4621
I3496
sS'Dashiki'
p4622
I2522
sS'Shell gorget'
p4623
I4552
sS'Straw hat'
p4624
I1430
sS'Kausia'
p4625
I2820
sS'Priestly undergarments'
p4626
I3919
sS'Afrikaners'
p4627
I4080
sS'Stand-up meeting'
p4628
I3497
sS'Tressoir'
p4629
I2292
sS'Monster.com'
p4630
I2290
sS'Mahabharata'
p4631
I326
sS'Halloween'
p4632
I237
sS'Uzbekistan'
p4633
I507
sS'Glass fiber'
p4634
I845
sS'Cheesecloth'
p4635
I1400
sS'Quiksilver'
p4636
I1434
sS'Dubstep'
p4637
I2505
sS'Bethlehem'
p4638
I123
sS'List of travelers'
p4639
I5017
sS"Washington's Birthday"
p4640
I4676
sS'Government Accountability Office'
p4641
I969
sS'Upturned collar'
p4642
I2237
sS'Kaross'
p4643
I2705
sS'Keffiyeh'
p4644
I5032
sS'Blucher shoe'
p4645
I4874
sS'Lagetta lagetto'
p4646
I2653
sS'Debs and grads'
p4647
I4404
sS'Jamshedpur'
p4648
I1152
sS'Warp (weaving)'
p4649
I1662
sS'Jump boot'
p4650
I2014
sS'Greek Army uniforms'
p4651
I4126
sS'Queen Victoria'
p4652
I614
sS'Sonu Nigam'
p4653
I3505
sS'Bangle'
p4654
I1748
sS'Country music'
p4655
I132
sS'Shanghai'
p4656
I452
sS'Convention (meeting)'
p4657
I2727
sS'Traditional Albanian clothing'
p4658
I4023
sS'Uniform'
p4659
I7
sS'Montefortino helmet'
p4660
I3458
sS'Hopi'
p4661
I675
sS'Mughal Empire'
p4662
I4383
sS'Hairpin'
p4663
I243
sS'Willis Tower'
p4664
I461
sS'Hinduism'
p4665
I232
sS'Noil'
p4666
I1981
sS'Tantour'
p4667
I3813
sS'Recreational travel'
p4668
I4708
sS'Cargo pants'
p4669
I2607
sS'Prom Night (1980 film)'
p4670
I2475
sS'Sunglasses'
p4671
I902
sS'Karate gi'
p4672
I2206
sS'Marryoke'
p4673
I4534
sS'Processional hymn'
p4674
I4617
sS'Huarache (shoe)'
p4675
I3486
sS'Ashton Kutcher'
p4676
I1094
sS'Snowshoe'
p4677
I748
sS'Moshe Feinstein'
p4678
I3174
sS'Psy'
p4679
I4879
sS'Quipu'
p4680
I1071
sS'Rajput'
p4681
I1531
sS'Banbi'
p4682
I4314
sS'Makar Sankranti'
p4683
I1353
sS'Bead'
p4684
I99
sS'Burqa'
p4685
I868
sS'Jean-Auguste-Dominique Ingres'
p4686
I615
sS'Midway briefs'
p4687
I5026
sS'Tulle netting'
p4688
I2056
sS'Dumbarton Oaks'
p4689
I1699
sS'Shoe tree'
p4690
I2167
sS'Holland cloth'
p4691
I4468
sS'Canada Day'
p4692
I145
sS'The Canterbury Tales'
p4693
I166
sS'Durbar (court)'
p4694
I2401
sS'Aida cloth'
p4695
I1774
sS'Yi mein'
p4696
I3775
sS'George Frideric Handel'
p4697
I223
sS'Vat dye'
p4698
I2570
sS'Blood on the Dance Floor (duo)'
p4699
I4876
sS'Cointoise'
p4700
I4898
sS'Wallet'
p4701
I1521
sS'Malong'
p4702
I1890
sS'Cuff'
p4703
I2586
sS'Nightgown'
p4704
I1491
sS'Chenille fabric'
p4705
I2380
sS'List of jazz festivals'
p4706
I1594
sS'Cowboy hat'
p4707
I1791
sS'Victorian era'
p4708
I520
sS'Shubha Khote'
p4709
I4860
sS'Salim Al-Hassani'
p4710
I3852
sS'Gingham'
p4711
I1988
sS'Trucker hat'
p4712
I2158
sS'Category:Graduation'
p4713
I3686
sS'Straw'
p4714
I604
sS'Sannyasa'
p4715
I1232
sS'Geodeulji'
p4716
I4268
sS'Poke bonnet'
p4717
I2708
sS'Strap'
p4718
I1907
sS'Chayei Sarah'
p4719
I2647
sS'Choir dress'
p4720
I2304
sS'Knickerbockers (clothing)'
p4721
I3076
sS'Home (sports)'
p4722
I3755
sS'Same-sex marriage in the United Kingdom'
p4723
I1530
sS'Marriage officiant'
p4724
I3373
sS'BarCamp'
p4725
I2483
sS'Eunjangdo'
p4726
I4746
sS'Wonju (Bhutan)'
p4727
I4741
sS'Buffy the Vampire Slayer'
p4728
I611
sS'Windproof smock'
p4729
I4863
sS'Oven glove'
p4730
I3000
sS'Pettipants'
p4731
I3532
sS'Ruana'
p4732
I4777
sS'Leisure suit'
p4733
I2028
sS'Hardee hat'
p4734
I2313
sS'Alginic acid'
p4735
I2378
sS'Surcingle belt'
p4736
I4620
sS'Category:Office buildings'
p4737
I3568
sS'Claddagh ring'
p4738
I901
sS'Temple garment'
p4739
I1305
sS'Mahatma Gandhi'
p4740
I322
sS'Nainsook'
p4741
I1628
sS'Drawstring'
p4742
I4475
sS'Snow boot'
p4743
I4646
sS'Shinto'
p4744
I463
sS'Printed T-shirt'
p4745
I4335
sS'Buckram'
p4746
I1082
sS'Argentina'
p4747
I4086
sS'Scrum cap'
p4748
I3902
sS'Bahrain'
p4749
I4077
sS'Imperial helmet'
p4750
I3460
sS'Mockado'
p4751
I4488
sS'Gamine'
p4752
I3119
sS'Marathi language'
p4753
I336
sS'Same-sex marriage in Argentina'
p4754
I2088
sS'Caesarean section'
p4755
I609
sS'Shogun'
p4756
I472
sS'Hajj'
p4757
I4350
sS'Sleeveless shirt'
p4758
I2427
sS'Tais'
p4759
I3608
sS'Donegal tweed'
p4760
I4779
sS'Grill (jewelry)'
p4761
I2723
sS'Wedding March (Mendelssohn)'
p4762
I1944
sS'Feather tights'
p4763
I4737
sS'Slouch hat'
p4764
I1347
sS'Ashkenazi Jews'
p4765
I817
sS'Peplum jacket'
p4766
I4823
sS'Agrahayana'
p4767
I1806
sS'History of the Southern United States'
p4768
I1801
sS"New Year's Eve"
p4769
I1101
sS'University of Michigan'
p4770
I501
sS'Khmer clothing'
p4771
I3740
sS'Electric jacket'
p4772
I3600
sS'Thracian clothing'
p4773
I4385
sS'Modern Irish Army uniform'
p4774
I3155
sS'Infant'
p4775
I722
sS'Kim Il-sung'
p4776
I4164
sS'Edible underwear'
p4777
I2754
sS'Ancient Egypt'
p4778
I75
sS'Silicon Valley'
p4779
I436
sS'Kannada people'
p4780
I1187
sS'Paper clothing'
p4781
I4573
sS'Tom Mix'
p4782
I1427
sS'Holly Carpenter'
p4783
I4781
sS'All over print'
p4784
I3860
sS'Masquerade ball'
p4785
I727
sS'Fibroin'
p4786
I3477
sS'Jamaica'
p4787
I267
sS'Fashion'
p4788
I1
sS'England'
p4789
I185
sS'Exomis'
p4790
I3387
sS'Icelandic national costume'
p4791
I3963
sS'Matchy-Matchy'
p4792
I4900
sS'Fichu'
p4793
I3525
sS'Pas kontuszowy'
p4794
I1926
sS'Profession'
p4795
I397
sS'Azerbaijan'
p4796
I72
sS'Coming of Age Day'
p4797
I1375
sS'Personal Clothing System'
p4798
I4857
sS'Old school (tattoo)'
p4799
I4361
sS'Adaptive clothing'
p4800
I2295
sS'Jennifer Lawrence'
p4801
I3751
sS'Tudong'
p4802
I3003
sS'Rosemount Ski Boots'
p4803
I4798
sS'Attic helmet'
p4804
I3966
sS'Chonmage'
p4805
I1783
sS'Kolpik'
p4806
I2979
sS'Paletot'
p4807
I4982
sS'Modacrylic'
p4808
I1595
sS'Category:Culture of the Western United States'
p4809
I4436
sS'Forever 21'
p4810
I2638
sS'Event management'
p4811
I2651
sS'Kundan'
p4812
I4418
sS'Template:Footwear'
p4813
I4262
sS'Kasta sari'
p4814
I3866
sS'Satire'
p4815
I432
sS'Polyester'
p4816
I2741
sS'Caipira'
p4817
I2674
sS'Ugg boots'
p4818
I1648
sS'Mary of Burgundy'
p4819
I820
sS'Rwanda'
p4820
I414
sS'Raffia palm'
p4821
I1668
sS'Chastity'
p4822
I161
sS'Bristle'
p4823
I1520
sS'Trilby'
p4824
I1360
sS'Goggle jacket'
p4825
I4564
sS'Colonel Sanders'
p4826
I4486
sS'Jungfernstieg'
p4827
I4998
sS'Hair jewellery'
p4828
I3676
sS'Cook Islands'
p4829
I160
sS'Abkhazia'
p4830
I4078
sS'Song official headwear'
p4831
I3780
sS'Dating game show'
p4832
I937
sS'Singapore'
p4833
I445
sS'Japanese school uniform'
p4834
I663
sS'Wikipedia:Articles for deletion/Job skirt'
p4835
I5042
sS'Irish Travellers'
p4836
I752
sS'Kat Von D'
p4837
I3195
sS'Ascot tie'
p4838
I2312
sS'Shisha (embroidery)'
p4839
I3873
sS'New Zealand Exchange'
p4840
I1825
sS'Spaghetti strap'
p4841
I1727
sS'Kendrick Lamar'
p4842
I4619
sS'Cannes Film Festival'
p4843
I772
sS'Mojari'
p4844
I3793
sS'Partition of Bengal (1905)'
p4845
I2580
sS'Pien Fu'
p4846
I3089
sS'Human condition'
p4847
I870
sS'Aventail'
p4848
I1665
sS'Milan Fashion Week'
p4849
I4051
sS'Cretonne'
p4850
I2468
sS'Jangot'
p4851
I4529
sS'Category:Ceremonial clothing'
p4852
I1833
sS'Tyvek'
p4853
I1838
sS'National Institute of Fashion Technology'
p4854
I2207
sS'British English'
p4855
I118
sS"Tam o' shanter (cap)"
p4856
I1487
sS'Tuva'
p4857
I2097
sS'Charmeuse'
p4858
I3672
sS'Priestly tunic'
p4859
I3920
sS'Art history'
p4860
I4231
sS'Fontange'
p4861
I3925
sS'Upanayana'
p4862
I1231
sS'Television program'
p4863
I4145
sS'Hijab'
p4864
I705
sS'Layered clothing'
p4865
I3418
sS'Flat cap'
p4866
I1471
sS'Songket'
p4867
I2922
sS'Herodotus'
p4868
I233
sS'Vent (tailoring)'
p4869
I4300
sS'Same-sex marriage'
p4870
I754
sS'Institute for Global Labour and Human Rights'
p4871
I2787
sS'Head tie'
p4872
I2848
sS'Lemon Popsicle'
p4873
I2950
sS'Gauze'
p4874
I2901
sS'Overskirt'
p4875
I4822
sS'Tanga (clothing)'
p4876
I1607
sS'Lady Gaga'
p4877
I4019
sS'Zoran (designer)'
p4878
I5014
sS'Insolia'
p4879
I1831
sS'Category:Street fashion'
p4880
I4814
sS'Dress code'
p4881
I25
sS'Grosgrain'
p4882
I3531
sS'Peter Jackson'
p4883
I4114
sS"Frederick's of Hollywood"
p4884
I1697
sS'Pasapali Sari'
p4885
I4714
sS'Tracht'
p4886
I1747
sS'Japan'
p4887
I263
sS'Cleavage enhancement'
p4888
I3777
sS'Fashion accessory'
p4889
I28
sS'Brez (clothing)'
p4890
I4582
sS'Wangjin'
p4891
I4994
sS'Neck corset'
p4892
I3514
sS'Abarka'
p4893
I3198
sS'Driving glove'
p4894
I4643
sS'Aguayo (cloth)'
p4895
I4413
sS'Psychology'
p4896
I375
sS'The Continent Makers and Other Tales of the Viagens'
p4897
I3209
sS'Dillybag'
p4898
I3292
sS'Fascia (sash)'
p4899
I3610
sS'Bunny slippers'
p4900
I4302
sS'Kangana Ranaut'
p4901
I3057
sS'Woodstock'
p4902
I533
sS'Silver Bells'
p4903
I2665
sS'Fofudja'
p4904
I3386
sS'Hungarian language'
p4905
I239
sS'Full plaid'
p4906
I3336
sS'Sneakers'
p4907
I1328
sS'Inner Mongolia'
p4908
I654
sS'Omophorion'
p4909
I1558
sS'Urination'
p4910
I854
sS"Valentine's Day"
p4911
I923
sS'Chasuble'
p4912
I1368
sS'Brunei'
p4913
I108
sS'Ivory'
p4914
I261
sS'Constantine, Algeria'
p4915
I1333
sS'Dumalla'
p4916
I4757
sS'Brioni (brand)'
p4917
I2245
sS'Bali'
p4918
I117
sS'Harrington jacket'
p4919
I1978
sS'Zardozi'
p4920
I3033
sS'Pashmina'
p4921
I1860
sS'Corslet'
p4922
I2952
sS'Firaq partug'
p4923
I5021
sS'Femininity'
p4924
I1039
sS'Rose madder'
p4925
I3255
sS'Canepin'
p4926
I4770
sS'House dress'
p4927
I4944
sS'Chile'
p4928
I138
sS'September 8'
p4929
I464
sS'Beatle boot'
p4930
I3625
sS'Same-sex marriage in Iceland'
p4931
I2084
sS'Pakistan Day'
p4932
I3948
sS'Alps'
p4933
I77
sS'Schott NYC'
p4934
I3293
sS'Bernos'
p4935
I2709
sS'High-top'
p4936
I3116
sS'Savile Row'
p4937
I1625
sS'Ministry of Textiles (India)'
p4938
I3589
sS'Karisma Kapoor'
p4939
I1326
sS'Toe cleavage'
p4940
I3252
sS'Sabbath in Christianity'
p4941
I427
sS'Shagreen'
p4942
I2482
sS'Croatia'
p4943
I140
sS'Shearling coat'
p4944
I4673
sS'Marriage in Islam'
p4945
I1982
sS'British Raj'
p4946
I2870
sS'Sterilization (microbiology)'
p4947
I1276
sS'Neck gaiter'
p4948
I4803
sS'Tactical pants'
p4949
I4658
sS'Napoleon'
p4950
I713
sS'Apex (headdress)'
p4951
I2143
sS'Mewar'
p4952
I2308
sS'Bicycle'
p4953
I114
sS'Myanmar'
p4954
I323
sS'Belt (clothing)'
p4955
I900
sS'Philippine Debut'
p4956
I3818
sS'Kariyushi shirt'
p4957
I4541
sS'Wedding videography'
p4958
I2502
sS'Gary Robinson'
p4959
I4585
sS'Chamanto'
p4960
I1899
sS'Snickers (workwear)'
p4961
I2802
sS'Shell jacket'
p4962
I3560
sS'Office supplies'
p4963
I1454
sS'Sarafan'
p4964
I2478
sS'The 5th Wheel'
p4965
I3286
sS'Category:1980s fashion'
p4966
I2717
sS'Valenki'
p4967
I2476
sS'Tie pin'
p4968
I3337
sS'Category:1970s fashion'
p4969
I2639
sS'Category:Italian fashion'
p4970
I3794
sS'July 7'
p4971
I273
sS'Baluchari Sari'
p4972
I4877
sS'Hollister Co.'
p4973
I3436
sS'Sandal'
p4974
I1677
sS'Mandilion'
p4975
I2252
sS'Modoc people'
p4976
I1254
sS'Smoking cap'
p4977
I2098
sS'Kosovorotka'
p4978
I2472
sS'Lava-lava'
p4979
I1970
sS'Girdle book'
p4980
I3381
sS'Chopine'
p4981
I3188
sS'Unconference'
p4982
I2660
sS'Elizabeth Smith Miller'
p4983
I4682
sS'Binyeo'
p4984
I4731
sS'Trousers'
p4985
I4103
sS'Ostrich leather'
p4986
I3028
sS'Semi-formal'
p4987
I2365
sS'Baji (clothing)'
p4988
I4530
sS'Cilice'
p4989
I1671
sS'Ronald Reagan'
p4990
I407
sS'Vyshyvanka'
p4991
I4060
sS'Wedding invitation'
p4992
I1967
sS'Imam'
p4993
I262
sS'Browline glasses'
p4994
I3831
sS'Vans'
p4995
I1901
sS'Hosiery'
p4996
I6
sS'Battenberg lace'
p4997
I4687
sS'Mount Everest'
p4998
I578
sS'Nordic countries'
p4999
I4360
sS'Pork pie hat'
p5000
I1585
sS'Utah'
p5001
I498
sS'Vat Purnima'
p5002
I2322
sS'Driza-Bone'
p5003
I1923
sS'Prince Albert (genital piercing)'
p5004
I403
sS'String bag'
p5005
I4578
sS'Gilet'
p5006
I3261
sS'Tricia Nixon Cox'
p5007
I1780
sS'Athletic conference'
p5008
I2336
sS'Horsehair'
p5009
I2459
sS'Honeycomb'
p5010
I676
sS'Carbon-fiber-reinforced polymer'
p5011
I4367
sS'Homo sapiens'
p5012
I762
sS'Soka Gakkai'
p5013
I908
sS'February'
p5014
I201
sS'Chilote cap'
p5015
I4548
sS'Category:Hinduism-related lists'
p5016
I4228
sS'List of types of fur'
p5017
I4508
sS'Category:Mexican fashion'
p5018
I3564
sS"She's All That"
p5019
I1788
sS'The O.C.'
p5020
I1119
sS'Nightshirt'
p5021
I1921
sS'Wild silk'
p5022
I4239
sS'Japanese armour'
p5023
I4240
sS'Category:Bangladeshi clothing'
p5024
I2917
sS'North Korea'
p5025
I349
sS'Court shoe'
p5026
I2617
sS'E-textiles'
p5027
I3837
sS'Same-sex marriage in Belgium'
p5028
I1056
sS'Physical attractiveness'
p5029
I1789
sS'Puja (Hinduism)'
p5030
I946
sS'Category:School dances'
p5031
I4403
sS'Windsor uniform'
p5032
I1407
sS'Bihu'
p5033
I997
sS'Gilly Hicks'
p5034
I3811
sS'North Brabant'
p5035
I655
sS'Freezy Freakies'
p5036
I2987
sS'Sheepskin'
p5037
I2600
sS'Dunce'
p5038
I2587
sS'Animal print'
p5039
I4405
sS'Sita'
p5040
I2317
sS'List of festivals in Iran'
p5041
I2591
sS'Krishna Janmashtami'
p5042
I1808
sS'Livery'
p5043
I1317
sS'Beizi'
p5044
I3715
sS'Units of textile measurement'
p5045
I3463
sS'Usekh collar'
p5046
I4296
sS'Military beret'
p5047
I4438
sS'Sri Lanka'
p5048
I430
sS'Willy warmer'
p5049
I4943
sS'Flogger (fashion)'
p5050
I4025
sS'Plate armour'
p5051
I1374
sS'Alexander Pushkin'
p5052
I642
sS'Wedding reception'
p5053
I565
sS'Stock tie'
p5054
I2697
s.